
./hafnium.elf:     file format elf64-littleaarch64


Disassembly of section .init:

0000000040001000 <entry>:
    40001000:	14000010 	b	40001040 <entry+0x40>
    40001004:	00000000 	.word	0x00000000
    40001008:	00001000 	.word	0x00001000
    4000100c:	00000000 	.word	0x00000000
    40001010:	000b6000 	.word	0x000b6000
	...
    40001038:	644d5241 	.word	0x644d5241
    4000103c:	00000000 	.word	0x00000000
    40001040:	90000019 	adrp	x25, 40001000 <entry>
    40001044:	91000339 	add	x25, x25, #0x0
    40001048:	1800031d 	ldr	w29, 400010a8 <entry+0xa8>
    4000104c:	cb1d0339 	sub	x25, x25, x29
    40001050:	b00000fd 	adrp	x29, 4001e000 <arch_mm_init.pa_bits_table+0x2a68>
    40001054:	910383bd 	add	x29, x29, #0xe0
    40001058:	b00000fe 	adrp	x30, 4001e000 <arch_mm_init.pa_bits_table+0x2a68>
    4000105c:	910e63de 	add	x30, x30, #0x398
    40001060:	eb1e03bf 	cmp	x29, x30
    40001064:	54000100 	b.eq	40001084 <entry+0x84>  // b.none
    40001068:	a8c16fba 	ldp	x26, x27, [x29], #16
    4000106c:	f84087bc 	ldr	x28, [x29], #8
    40001070:	71100f7f 	cmp	w27, #0x403
    40001074:	54000001 	b.ne	40001074 <entry+0x74>  // b.any
    40001078:	8b19039c 	add	x28, x28, x25
    4000107c:	f8396b5c 	str	x28, [x26, x25]
    40001080:	17fffff8 	b	40001060 <entry+0x60>
    40001084:	d00000fd 	adrp	x29, 4001f000 <cpus>
    40001088:	910943bd 	add	x29, x29, #0x250
    4000108c:	d00005be 	adrp	x30, 400b7000 <bss_end>
    40001090:	910003de 	add	x30, x30, #0x0
    40001094:	eb1e03bf 	cmp	x29, x30
    40001098:	54000062 	b.cs	400010a4 <entry+0xa4>  // b.hs, b.nlast
    4000109c:	a8817fbf 	stp	xzr, xzr, [x29], #16
    400010a0:	17fffffd 	b	40001094 <entry+0x94>
    400010a4:	14000002 	b	400010ac <image_entry>
    400010a8:	40001000 	.word	0x40001000

00000000400010ac <image_entry>:
    400010ac:	94000010 	bl	400010ec <plat_boot_flow_hook>
    400010b0:	d00000fc 	adrp	x28, 4001f000 <cpus>
    400010b4:	9100039c 	add	x28, x28, #0x0
    400010b8:	d53800be 	mrs	x30, mpidr_el1
    400010bc:	d3405fdd 	ubfx	x29, x30, #0, #24
    400010c0:	d3609fde 	ubfx	x30, x30, #32, #8
    400010c4:	aa1e03be 	orr	x30, x29, x30
    400010c8:	f900039e 	str	x30, [x28]
    400010cc:	aa1c03e0 	mov	x0, x28
    400010d0:	940004a1 	bl	40002354 <prepare_for_c>
    400010d4:	94000524 	bl	40002564 <one_time_init_mm>
    400010d8:	940004a5 	bl	4000236c <mm_enable>
    400010dc:	9400078b 	bl	40002f08 <one_time_init>
    400010e0:	aa1c03e0 	mov	x0, x28
    400010e4:	14000498 	b	40002344 <cpu_init>

00000000400010e8 <plat_entry>:
    400010e8:	d65f03c0 	ret

00000000400010ec <plat_boot_flow_hook>:
    400010ec:	f00000f9 	adrp	x25, 40020000 <arch_mm_config>
    400010f0:	9100c339 	add	x25, x25, #0x30
    400010f4:	f9000320 	str	x0, [x25]
    400010f8:	d65f03c0 	ret

Disassembly of section .text:

0000000040001800 <vector_table_el2>:
    40001800:	d50041bf 	msr	spsel, #0x1
    40001804:	a9b407e0 	stp	x0, x1, [sp, #-192]!
    40001808:	a9010fe2 	stp	x2, x3, [sp, #16]
    4000180c:	a90217e4 	stp	x4, x5, [sp, #32]
    40001810:	a9031fe6 	stp	x6, x7, [sp, #48]
    40001814:	a90427e8 	stp	x8, x9, [sp, #64]
    40001818:	a9052fea 	stp	x10, x11, [sp, #80]
    4000181c:	a90637ec 	stp	x12, x13, [sp, #96]
    40001820:	a9073fee 	stp	x14, x15, [sp, #112]
    40001824:	a90847f0 	stp	x16, x17, [sp, #128]
    40001828:	f9004bf2 	str	x18, [sp, #144]
    4000182c:	a90a7bfd 	stp	x29, x30, [sp, #160]
    40001830:	d53c4020 	mrs	x0, elr_el2
    40001834:	d53c4001 	mrs	x1, spsr_el2
    40001838:	a90b07e0 	stp	x0, x1, [sp, #176]
    4000183c:	14004527 	b	40012cd8 <sync_current_exception_noreturn>
    40001840:	d503201f 	nop
    40001844:	d503201f 	nop
    40001848:	d503201f 	nop
    4000184c:	d503201f 	nop
    40001850:	d503201f 	nop
    40001854:	d503201f 	nop
    40001858:	d503201f 	nop
    4000185c:	d503201f 	nop
    40001860:	d503201f 	nop
    40001864:	d503201f 	nop
    40001868:	d503201f 	nop
    4000186c:	d503201f 	nop
    40001870:	d503201f 	nop
    40001874:	d503201f 	nop
    40001878:	d503201f 	nop
    4000187c:	d503201f 	nop

0000000040001880 <irq_cur_sp0>:
    40001880:	d50041bf 	msr	spsel, #0x1
    40001884:	a9b407e0 	stp	x0, x1, [sp, #-192]!
    40001888:	a9010fe2 	stp	x2, x3, [sp, #16]
    4000188c:	a90217e4 	stp	x4, x5, [sp, #32]
    40001890:	a9031fe6 	stp	x6, x7, [sp, #48]
    40001894:	a90427e8 	stp	x8, x9, [sp, #64]
    40001898:	a9052fea 	stp	x10, x11, [sp, #80]
    4000189c:	a90637ec 	stp	x12, x13, [sp, #96]
    400018a0:	a9073fee 	stp	x14, x15, [sp, #112]
    400018a4:	a90847f0 	stp	x16, x17, [sp, #128]
    400018a8:	f9004bf2 	str	x18, [sp, #144]
    400018ac:	a90a7bfd 	stp	x29, x30, [sp, #160]
    400018b0:	d53c4020 	mrs	x0, elr_el2
    400018b4:	d53c4001 	mrs	x1, spsr_el2
    400018b8:	a90b07e0 	stp	x0, x1, [sp, #176]
    400018bc:	140044f8 	b	40012c9c <irq_current_exception_noreturn>
    400018c0:	d503201f 	nop
    400018c4:	d503201f 	nop
    400018c8:	d503201f 	nop
    400018cc:	d503201f 	nop
    400018d0:	d503201f 	nop
    400018d4:	d503201f 	nop
    400018d8:	d503201f 	nop
    400018dc:	d503201f 	nop
    400018e0:	d503201f 	nop
    400018e4:	d503201f 	nop
    400018e8:	d503201f 	nop
    400018ec:	d503201f 	nop
    400018f0:	d503201f 	nop
    400018f4:	d503201f 	nop
    400018f8:	d503201f 	nop
    400018fc:	d503201f 	nop

0000000040001900 <fiq_cur_sp0>:
    40001900:	d50041bf 	msr	spsel, #0x1
    40001904:	a9b407e0 	stp	x0, x1, [sp, #-192]!
    40001908:	a9010fe2 	stp	x2, x3, [sp, #16]
    4000190c:	a90217e4 	stp	x4, x5, [sp, #32]
    40001910:	a9031fe6 	stp	x6, x7, [sp, #48]
    40001914:	a90427e8 	stp	x8, x9, [sp, #64]
    40001918:	a9052fea 	stp	x10, x11, [sp, #80]
    4000191c:	a90637ec 	stp	x12, x13, [sp, #96]
    40001920:	a9073fee 	stp	x14, x15, [sp, #112]
    40001924:	a90847f0 	stp	x16, x17, [sp, #128]
    40001928:	f9004bf2 	str	x18, [sp, #144]
    4000192c:	a90a7bfd 	stp	x29, x30, [sp, #160]
    40001930:	d53c4020 	mrs	x0, elr_el2
    40001934:	d53c4001 	mrs	x1, spsr_el2
    40001938:	a90b07e0 	stp	x0, x1, [sp, #176]
    4000193c:	140044dd 	b	40012cb0 <fiq_current_exception_noreturn>
    40001940:	d503201f 	nop
    40001944:	d503201f 	nop
    40001948:	d503201f 	nop
    4000194c:	d503201f 	nop
    40001950:	d503201f 	nop
    40001954:	d503201f 	nop
    40001958:	d503201f 	nop
    4000195c:	d503201f 	nop
    40001960:	d503201f 	nop
    40001964:	d503201f 	nop
    40001968:	d503201f 	nop
    4000196c:	d503201f 	nop
    40001970:	d503201f 	nop
    40001974:	d503201f 	nop
    40001978:	d503201f 	nop
    4000197c:	d503201f 	nop

0000000040001980 <serr_cur_sp0>:
    40001980:	d50041bf 	msr	spsel, #0x1
    40001984:	a9b407e0 	stp	x0, x1, [sp, #-192]!
    40001988:	a9010fe2 	stp	x2, x3, [sp, #16]
    4000198c:	a90217e4 	stp	x4, x5, [sp, #32]
    40001990:	a9031fe6 	stp	x6, x7, [sp, #48]
    40001994:	a90427e8 	stp	x8, x9, [sp, #64]
    40001998:	a9052fea 	stp	x10, x11, [sp, #80]
    4000199c:	a90637ec 	stp	x12, x13, [sp, #96]
    400019a0:	a9073fee 	stp	x14, x15, [sp, #112]
    400019a4:	a90847f0 	stp	x16, x17, [sp, #128]
    400019a8:	f9004bf2 	str	x18, [sp, #144]
    400019ac:	a90a7bfd 	stp	x29, x30, [sp, #160]
    400019b0:	d53c4020 	mrs	x0, elr_el2
    400019b4:	d53c4001 	mrs	x1, spsr_el2
    400019b8:	a90b07e0 	stp	x0, x1, [sp, #176]
    400019bc:	140044c2 	b	40012cc4 <serr_current_exception_noreturn>
    400019c0:	d503201f 	nop
    400019c4:	d503201f 	nop
    400019c8:	d503201f 	nop
    400019cc:	d503201f 	nop
    400019d0:	d503201f 	nop
    400019d4:	d503201f 	nop
    400019d8:	d503201f 	nop
    400019dc:	d503201f 	nop
    400019e0:	d503201f 	nop
    400019e4:	d503201f 	nop
    400019e8:	d503201f 	nop
    400019ec:	d503201f 	nop
    400019f0:	d503201f 	nop
    400019f4:	d503201f 	nop
    400019f8:	d503201f 	nop
    400019fc:	d503201f 	nop

0000000040001a00 <sync_cur_spx>:
    40001a00:	a9b407e0 	stp	x0, x1, [sp, #-192]!
    40001a04:	a9010fe2 	stp	x2, x3, [sp, #16]
    40001a08:	a90217e4 	stp	x4, x5, [sp, #32]
    40001a0c:	a9031fe6 	stp	x6, x7, [sp, #48]
    40001a10:	a90427e8 	stp	x8, x9, [sp, #64]
    40001a14:	a9052fea 	stp	x10, x11, [sp, #80]
    40001a18:	a90637ec 	stp	x12, x13, [sp, #96]
    40001a1c:	a9073fee 	stp	x14, x15, [sp, #112]
    40001a20:	a90847f0 	stp	x16, x17, [sp, #128]
    40001a24:	f9004bf2 	str	x18, [sp, #144]
    40001a28:	a90a7bfd 	stp	x29, x30, [sp, #160]
    40001a2c:	d53c4020 	mrs	x0, elr_el2
    40001a30:	d53c4001 	mrs	x1, spsr_el2
    40001a34:	a90b07e0 	stp	x0, x1, [sp, #176]
    40001a38:	140044a8 	b	40012cd8 <sync_current_exception_noreturn>
    40001a3c:	d503201f 	nop
    40001a40:	d503201f 	nop
    40001a44:	d503201f 	nop
    40001a48:	d503201f 	nop
    40001a4c:	d503201f 	nop
    40001a50:	d503201f 	nop
    40001a54:	d503201f 	nop
    40001a58:	d503201f 	nop
    40001a5c:	d503201f 	nop
    40001a60:	d503201f 	nop
    40001a64:	d503201f 	nop
    40001a68:	d503201f 	nop
    40001a6c:	d503201f 	nop
    40001a70:	d503201f 	nop
    40001a74:	d503201f 	nop
    40001a78:	d503201f 	nop
    40001a7c:	d503201f 	nop

0000000040001a80 <irq_cur_spx>:
    40001a80:	a9b407e0 	stp	x0, x1, [sp, #-192]!
    40001a84:	a9010fe2 	stp	x2, x3, [sp, #16]
    40001a88:	a90217e4 	stp	x4, x5, [sp, #32]
    40001a8c:	a9031fe6 	stp	x6, x7, [sp, #48]
    40001a90:	a90427e8 	stp	x8, x9, [sp, #64]
    40001a94:	a9052fea 	stp	x10, x11, [sp, #80]
    40001a98:	a90637ec 	stp	x12, x13, [sp, #96]
    40001a9c:	a9073fee 	stp	x14, x15, [sp, #112]
    40001aa0:	a90847f0 	stp	x16, x17, [sp, #128]
    40001aa4:	f9004bf2 	str	x18, [sp, #144]
    40001aa8:	a90a7bfd 	stp	x29, x30, [sp, #160]
    40001aac:	d53c4020 	mrs	x0, elr_el2
    40001ab0:	d53c4001 	mrs	x1, spsr_el2
    40001ab4:	a90b07e0 	stp	x0, x1, [sp, #176]
    40001ab8:	14004479 	b	40012c9c <irq_current_exception_noreturn>
    40001abc:	d503201f 	nop
    40001ac0:	d503201f 	nop
    40001ac4:	d503201f 	nop
    40001ac8:	d503201f 	nop
    40001acc:	d503201f 	nop
    40001ad0:	d503201f 	nop
    40001ad4:	d503201f 	nop
    40001ad8:	d503201f 	nop
    40001adc:	d503201f 	nop
    40001ae0:	d503201f 	nop
    40001ae4:	d503201f 	nop
    40001ae8:	d503201f 	nop
    40001aec:	d503201f 	nop
    40001af0:	d503201f 	nop
    40001af4:	d503201f 	nop
    40001af8:	d503201f 	nop
    40001afc:	d503201f 	nop

0000000040001b00 <fiq_cur_spx>:
    40001b00:	a9b407e0 	stp	x0, x1, [sp, #-192]!
    40001b04:	a9010fe2 	stp	x2, x3, [sp, #16]
    40001b08:	a90217e4 	stp	x4, x5, [sp, #32]
    40001b0c:	a9031fe6 	stp	x6, x7, [sp, #48]
    40001b10:	a90427e8 	stp	x8, x9, [sp, #64]
    40001b14:	a9052fea 	stp	x10, x11, [sp, #80]
    40001b18:	a90637ec 	stp	x12, x13, [sp, #96]
    40001b1c:	a9073fee 	stp	x14, x15, [sp, #112]
    40001b20:	a90847f0 	stp	x16, x17, [sp, #128]
    40001b24:	f9004bf2 	str	x18, [sp, #144]
    40001b28:	a90a7bfd 	stp	x29, x30, [sp, #160]
    40001b2c:	d53c4020 	mrs	x0, elr_el2
    40001b30:	d53c4001 	mrs	x1, spsr_el2
    40001b34:	a90b07e0 	stp	x0, x1, [sp, #176]
    40001b38:	1400445e 	b	40012cb0 <fiq_current_exception_noreturn>
    40001b3c:	d503201f 	nop
    40001b40:	d503201f 	nop
    40001b44:	d503201f 	nop
    40001b48:	d503201f 	nop
    40001b4c:	d503201f 	nop
    40001b50:	d503201f 	nop
    40001b54:	d503201f 	nop
    40001b58:	d503201f 	nop
    40001b5c:	d503201f 	nop
    40001b60:	d503201f 	nop
    40001b64:	d503201f 	nop
    40001b68:	d503201f 	nop
    40001b6c:	d503201f 	nop
    40001b70:	d503201f 	nop
    40001b74:	d503201f 	nop
    40001b78:	d503201f 	nop
    40001b7c:	d503201f 	nop

0000000040001b80 <serr_cur_spx>:
    40001b80:	a9b407e0 	stp	x0, x1, [sp, #-192]!
    40001b84:	a9010fe2 	stp	x2, x3, [sp, #16]
    40001b88:	a90217e4 	stp	x4, x5, [sp, #32]
    40001b8c:	a9031fe6 	stp	x6, x7, [sp, #48]
    40001b90:	a90427e8 	stp	x8, x9, [sp, #64]
    40001b94:	a9052fea 	stp	x10, x11, [sp, #80]
    40001b98:	a90637ec 	stp	x12, x13, [sp, #96]
    40001b9c:	a9073fee 	stp	x14, x15, [sp, #112]
    40001ba0:	a90847f0 	stp	x16, x17, [sp, #128]
    40001ba4:	f9004bf2 	str	x18, [sp, #144]
    40001ba8:	a90a7bfd 	stp	x29, x30, [sp, #160]
    40001bac:	d53c4020 	mrs	x0, elr_el2
    40001bb0:	d53c4001 	mrs	x1, spsr_el2
    40001bb4:	a90b07e0 	stp	x0, x1, [sp, #176]
    40001bb8:	14004443 	b	40012cc4 <serr_current_exception_noreturn>
    40001bbc:	d503201f 	nop
    40001bc0:	d503201f 	nop
    40001bc4:	d503201f 	nop
    40001bc8:	d503201f 	nop
    40001bcc:	d503201f 	nop
    40001bd0:	d503201f 	nop
    40001bd4:	d503201f 	nop
    40001bd8:	d503201f 	nop
    40001bdc:	d503201f 	nop
    40001be0:	d503201f 	nop
    40001be4:	d503201f 	nop
    40001be8:	d503201f 	nop
    40001bec:	d503201f 	nop
    40001bf0:	d503201f 	nop
    40001bf4:	d503201f 	nop
    40001bf8:	d503201f 	nop
    40001bfc:	d503201f 	nop

0000000040001c00 <sync_lower_64>:
    40001c00:	f81f0ff2 	str	x18, [sp, #-16]!
    40001c04:	d53cd052 	mrs	x18, tpidr_el2
    40001c08:	a9020640 	stp	x0, x1, [x18, #32]
    40001c0c:	a9030e42 	stp	x2, x3, [x18, #48]
    40001c10:	a9041644 	stp	x4, x5, [x18, #64]
    40001c14:	a9051e46 	stp	x6, x7, [x18, #80]
    40001c18:	a9062648 	stp	x8, x9, [x18, #96]
    40001c1c:	a9072e4a 	stp	x10, x11, [x18, #112]
    40001c20:	a908364c 	stp	x12, x13, [x18, #128]
    40001c24:	a9093e4e 	stp	x14, x15, [x18, #144]
    40001c28:	a90a4650 	stp	x16, x17, [x18, #160]
    40001c2c:	a910fa5d 	stp	x29, x30, [x18, #264]
    40001c30:	f84107e0 	ldr	x0, [sp], #16
    40001c34:	f9005a40 	str	x0, [x18, #176]
    40001c38:	d53c4021 	mrs	x1, elr_el2
    40001c3c:	d53c4002 	mrs	x2, spsr_el2
    40001c40:	a9118a41 	stp	x1, x2, [x18, #280]
    40001c44:	d53c5212 	mrs	x18, esr_el2
    40001c48:	d35afe52 	lsr	x18, x18, #26
    40001c4c:	d1006252 	sub	x18, x18, #0x18
    40001c50:	b4001d92 	cbz	x18, 40002000 <system_register_access>
    40001c54:	d53c5200 	mrs	x0, esr_el2
    40001c58:	d53c6001 	mrs	x1, far_el2
    40001c5c:	94004474 	bl	40012e2c <sync_lower_exception>
    40001c60:	b5001e40 	cbnz	x0, 40002028 <vcpu_switch>
    40001c64:	d53cd040 	mrs	x0, tpidr_el2
    40001c68:	140001a4 	b	400022f8 <vcpu_restore_volatile_and_run>
    40001c6c:	d503201f 	nop
    40001c70:	d503201f 	nop
    40001c74:	d503201f 	nop
    40001c78:	d503201f 	nop
    40001c7c:	d503201f 	nop

0000000040001c80 <irq_lower_64>:
    40001c80:	f81f0ff2 	str	x18, [sp, #-16]!
    40001c84:	d53cd052 	mrs	x18, tpidr_el2
    40001c88:	a9020640 	stp	x0, x1, [x18, #32]
    40001c8c:	a9030e42 	stp	x2, x3, [x18, #48]
    40001c90:	a9041644 	stp	x4, x5, [x18, #64]
    40001c94:	a9051e46 	stp	x6, x7, [x18, #80]
    40001c98:	a9062648 	stp	x8, x9, [x18, #96]
    40001c9c:	a9072e4a 	stp	x10, x11, [x18, #112]
    40001ca0:	a908364c 	stp	x12, x13, [x18, #128]
    40001ca4:	a9093e4e 	stp	x14, x15, [x18, #144]
    40001ca8:	a90a4650 	stp	x16, x17, [x18, #160]
    40001cac:	a910fa5d 	stp	x29, x30, [x18, #264]
    40001cb0:	f84107e0 	ldr	x0, [sp], #16
    40001cb4:	f9005a40 	str	x0, [x18, #176]
    40001cb8:	d53c4021 	mrs	x1, elr_el2
    40001cbc:	d53c4002 	mrs	x2, spsr_el2
    40001cc0:	a9118a41 	stp	x1, x2, [x18, #280]
    40001cc4:	9400441d 	bl	40012d38 <fiq_lower>
    40001cc8:	b5001b00 	cbnz	x0, 40002028 <vcpu_switch>
    40001ccc:	d53cd040 	mrs	x0, tpidr_el2
    40001cd0:	1400018a 	b	400022f8 <vcpu_restore_volatile_and_run>
    40001cd4:	d503201f 	nop
    40001cd8:	d503201f 	nop
    40001cdc:	d503201f 	nop
    40001ce0:	d503201f 	nop
    40001ce4:	d503201f 	nop
    40001ce8:	d503201f 	nop
    40001cec:	d503201f 	nop
    40001cf0:	d503201f 	nop
    40001cf4:	d503201f 	nop
    40001cf8:	d503201f 	nop
    40001cfc:	d503201f 	nop

0000000040001d00 <fiq_lower_64>:
    40001d00:	f81f0ff2 	str	x18, [sp, #-16]!
    40001d04:	d53cd052 	mrs	x18, tpidr_el2
    40001d08:	a9020640 	stp	x0, x1, [x18, #32]
    40001d0c:	a9030e42 	stp	x2, x3, [x18, #48]
    40001d10:	a9041644 	stp	x4, x5, [x18, #64]
    40001d14:	a9051e46 	stp	x6, x7, [x18, #80]
    40001d18:	a9062648 	stp	x8, x9, [x18, #96]
    40001d1c:	a9072e4a 	stp	x10, x11, [x18, #112]
    40001d20:	a908364c 	stp	x12, x13, [x18, #128]
    40001d24:	a9093e4e 	stp	x14, x15, [x18, #144]
    40001d28:	a90a4650 	stp	x16, x17, [x18, #160]
    40001d2c:	a910fa5d 	stp	x29, x30, [x18, #264]
    40001d30:	f84107e0 	ldr	x0, [sp], #16
    40001d34:	f9005a40 	str	x0, [x18, #176]
    40001d38:	d53c4021 	mrs	x1, elr_el2
    40001d3c:	d53c4002 	mrs	x2, spsr_el2
    40001d40:	a9118a41 	stp	x1, x2, [x18, #280]
    40001d44:	940043fd 	bl	40012d38 <fiq_lower>
    40001d48:	b5001700 	cbnz	x0, 40002028 <vcpu_switch>
    40001d4c:	d53cd040 	mrs	x0, tpidr_el2
    40001d50:	1400016a 	b	400022f8 <vcpu_restore_volatile_and_run>
    40001d54:	d503201f 	nop
    40001d58:	d503201f 	nop
    40001d5c:	d503201f 	nop
    40001d60:	d503201f 	nop
    40001d64:	d503201f 	nop
    40001d68:	d503201f 	nop
    40001d6c:	d503201f 	nop
    40001d70:	d503201f 	nop
    40001d74:	d503201f 	nop
    40001d78:	d503201f 	nop
    40001d7c:	d503201f 	nop

0000000040001d80 <serr_lower_64>:
    40001d80:	f81f0ff2 	str	x18, [sp, #-16]!
    40001d84:	d53cd052 	mrs	x18, tpidr_el2
    40001d88:	a9020640 	stp	x0, x1, [x18, #32]
    40001d8c:	a9030e42 	stp	x2, x3, [x18, #48]
    40001d90:	a9041644 	stp	x4, x5, [x18, #64]
    40001d94:	a9051e46 	stp	x6, x7, [x18, #80]
    40001d98:	a9062648 	stp	x8, x9, [x18, #96]
    40001d9c:	a9072e4a 	stp	x10, x11, [x18, #112]
    40001da0:	a908364c 	stp	x12, x13, [x18, #128]
    40001da4:	a9093e4e 	stp	x14, x15, [x18, #144]
    40001da8:	a90a4650 	stp	x16, x17, [x18, #160]
    40001dac:	a910fa5d 	stp	x29, x30, [x18, #264]
    40001db0:	f84107e0 	ldr	x0, [sp], #16
    40001db4:	f9005a40 	str	x0, [x18, #176]
    40001db8:	d53c4021 	mrs	x1, elr_el2
    40001dbc:	d53c4002 	mrs	x2, spsr_el2
    40001dc0:	a9118a41 	stp	x1, x2, [x18, #280]
    40001dc4:	94004415 	bl	40012e18 <serr_lower>
    40001dc8:	b5001300 	cbnz	x0, 40002028 <vcpu_switch>
    40001dcc:	d53cd040 	mrs	x0, tpidr_el2
    40001dd0:	1400014a 	b	400022f8 <vcpu_restore_volatile_and_run>
    40001dd4:	d503201f 	nop
    40001dd8:	d503201f 	nop
    40001ddc:	d503201f 	nop
    40001de0:	d503201f 	nop
    40001de4:	d503201f 	nop
    40001de8:	d503201f 	nop
    40001dec:	d503201f 	nop
    40001df0:	d503201f 	nop
    40001df4:	d503201f 	nop
    40001df8:	d503201f 	nop
    40001dfc:	d503201f 	nop

0000000040001e00 <sync_lower_32>:
    40001e00:	f81f0ff2 	str	x18, [sp, #-16]!
    40001e04:	d53cd052 	mrs	x18, tpidr_el2
    40001e08:	a9020640 	stp	x0, x1, [x18, #32]
    40001e0c:	a9030e42 	stp	x2, x3, [x18, #48]
    40001e10:	a9041644 	stp	x4, x5, [x18, #64]
    40001e14:	a9051e46 	stp	x6, x7, [x18, #80]
    40001e18:	a9062648 	stp	x8, x9, [x18, #96]
    40001e1c:	a9072e4a 	stp	x10, x11, [x18, #112]
    40001e20:	a908364c 	stp	x12, x13, [x18, #128]
    40001e24:	a9093e4e 	stp	x14, x15, [x18, #144]
    40001e28:	a90a4650 	stp	x16, x17, [x18, #160]
    40001e2c:	a910fa5d 	stp	x29, x30, [x18, #264]
    40001e30:	f84107e0 	ldr	x0, [sp], #16
    40001e34:	f9005a40 	str	x0, [x18, #176]
    40001e38:	d53c4021 	mrs	x1, elr_el2
    40001e3c:	d53c4002 	mrs	x2, spsr_el2
    40001e40:	a9118a41 	stp	x1, x2, [x18, #280]
    40001e44:	d53c5212 	mrs	x18, esr_el2
    40001e48:	d35afe52 	lsr	x18, x18, #26
    40001e4c:	d1006252 	sub	x18, x18, #0x18
    40001e50:	b4000d92 	cbz	x18, 40002000 <system_register_access>
    40001e54:	d53c5200 	mrs	x0, esr_el2
    40001e58:	d53c6001 	mrs	x1, far_el2
    40001e5c:	940043f4 	bl	40012e2c <sync_lower_exception>
    40001e60:	b5000e40 	cbnz	x0, 40002028 <vcpu_switch>
    40001e64:	d53cd040 	mrs	x0, tpidr_el2
    40001e68:	14000124 	b	400022f8 <vcpu_restore_volatile_and_run>
    40001e6c:	d503201f 	nop
    40001e70:	d503201f 	nop
    40001e74:	d503201f 	nop
    40001e78:	d503201f 	nop
    40001e7c:	d503201f 	nop

0000000040001e80 <irq_lower_32>:
    40001e80:	f81f0ff2 	str	x18, [sp, #-16]!
    40001e84:	d53cd052 	mrs	x18, tpidr_el2
    40001e88:	a9020640 	stp	x0, x1, [x18, #32]
    40001e8c:	a9030e42 	stp	x2, x3, [x18, #48]
    40001e90:	a9041644 	stp	x4, x5, [x18, #64]
    40001e94:	a9051e46 	stp	x6, x7, [x18, #80]
    40001e98:	a9062648 	stp	x8, x9, [x18, #96]
    40001e9c:	a9072e4a 	stp	x10, x11, [x18, #112]
    40001ea0:	a908364c 	stp	x12, x13, [x18, #128]
    40001ea4:	a9093e4e 	stp	x14, x15, [x18, #144]
    40001ea8:	a90a4650 	stp	x16, x17, [x18, #160]
    40001eac:	a910fa5d 	stp	x29, x30, [x18, #264]
    40001eb0:	f84107e0 	ldr	x0, [sp], #16
    40001eb4:	f9005a40 	str	x0, [x18, #176]
    40001eb8:	d53c4021 	mrs	x1, elr_el2
    40001ebc:	d53c4002 	mrs	x2, spsr_el2
    40001ec0:	a9118a41 	stp	x1, x2, [x18, #280]
    40001ec4:	9400439d 	bl	40012d38 <fiq_lower>
    40001ec8:	b5000b00 	cbnz	x0, 40002028 <vcpu_switch>
    40001ecc:	d53cd040 	mrs	x0, tpidr_el2
    40001ed0:	1400010a 	b	400022f8 <vcpu_restore_volatile_and_run>
    40001ed4:	d503201f 	nop
    40001ed8:	d503201f 	nop
    40001edc:	d503201f 	nop
    40001ee0:	d503201f 	nop
    40001ee4:	d503201f 	nop
    40001ee8:	d503201f 	nop
    40001eec:	d503201f 	nop
    40001ef0:	d503201f 	nop
    40001ef4:	d503201f 	nop
    40001ef8:	d503201f 	nop
    40001efc:	d503201f 	nop

0000000040001f00 <fiq_lower_32>:
    40001f00:	f81f0ff2 	str	x18, [sp, #-16]!
    40001f04:	d53cd052 	mrs	x18, tpidr_el2
    40001f08:	a9020640 	stp	x0, x1, [x18, #32]
    40001f0c:	a9030e42 	stp	x2, x3, [x18, #48]
    40001f10:	a9041644 	stp	x4, x5, [x18, #64]
    40001f14:	a9051e46 	stp	x6, x7, [x18, #80]
    40001f18:	a9062648 	stp	x8, x9, [x18, #96]
    40001f1c:	a9072e4a 	stp	x10, x11, [x18, #112]
    40001f20:	a908364c 	stp	x12, x13, [x18, #128]
    40001f24:	a9093e4e 	stp	x14, x15, [x18, #144]
    40001f28:	a90a4650 	stp	x16, x17, [x18, #160]
    40001f2c:	a910fa5d 	stp	x29, x30, [x18, #264]
    40001f30:	f84107e0 	ldr	x0, [sp], #16
    40001f34:	f9005a40 	str	x0, [x18, #176]
    40001f38:	d53c4021 	mrs	x1, elr_el2
    40001f3c:	d53c4002 	mrs	x2, spsr_el2
    40001f40:	a9118a41 	stp	x1, x2, [x18, #280]
    40001f44:	9400437d 	bl	40012d38 <fiq_lower>
    40001f48:	b5000700 	cbnz	x0, 40002028 <vcpu_switch>
    40001f4c:	d53cd040 	mrs	x0, tpidr_el2
    40001f50:	140000ea 	b	400022f8 <vcpu_restore_volatile_and_run>
    40001f54:	d503201f 	nop
    40001f58:	d503201f 	nop
    40001f5c:	d503201f 	nop
    40001f60:	d503201f 	nop
    40001f64:	d503201f 	nop
    40001f68:	d503201f 	nop
    40001f6c:	d503201f 	nop
    40001f70:	d503201f 	nop
    40001f74:	d503201f 	nop
    40001f78:	d503201f 	nop
    40001f7c:	d503201f 	nop

0000000040001f80 <serr_lower_32>:
    40001f80:	f81f0ff2 	str	x18, [sp, #-16]!
    40001f84:	d53cd052 	mrs	x18, tpidr_el2
    40001f88:	a9020640 	stp	x0, x1, [x18, #32]
    40001f8c:	a9030e42 	stp	x2, x3, [x18, #48]
    40001f90:	a9041644 	stp	x4, x5, [x18, #64]
    40001f94:	a9051e46 	stp	x6, x7, [x18, #80]
    40001f98:	a9062648 	stp	x8, x9, [x18, #96]
    40001f9c:	a9072e4a 	stp	x10, x11, [x18, #112]
    40001fa0:	a908364c 	stp	x12, x13, [x18, #128]
    40001fa4:	a9093e4e 	stp	x14, x15, [x18, #144]
    40001fa8:	a90a4650 	stp	x16, x17, [x18, #160]
    40001fac:	a910fa5d 	stp	x29, x30, [x18, #264]
    40001fb0:	f84107e0 	ldr	x0, [sp], #16
    40001fb4:	f9005a40 	str	x0, [x18, #176]
    40001fb8:	d53c4021 	mrs	x1, elr_el2
    40001fbc:	d53c4002 	mrs	x2, spsr_el2
    40001fc0:	a9118a41 	stp	x1, x2, [x18, #280]
    40001fc4:	94004395 	bl	40012e18 <serr_lower>
    40001fc8:	b5000300 	cbnz	x0, 40002028 <vcpu_switch>
    40001fcc:	d53cd040 	mrs	x0, tpidr_el2
    40001fd0:	140000ca 	b	400022f8 <vcpu_restore_volatile_and_run>
    40001fd4:	d503201f 	nop
    40001fd8:	d503201f 	nop
    40001fdc:	d503201f 	nop
    40001fe0:	d503201f 	nop
    40001fe4:	d503201f 	nop
    40001fe8:	d503201f 	nop
    40001fec:	d503201f 	nop
    40001ff0:	d503201f 	nop
    40001ff4:	d503201f 	nop
    40001ff8:	d503201f 	nop
    40001ffc:	d503201f 	nop

0000000040002000 <system_register_access>:
    40002000:	d53cd052 	mrs	x18, tpidr_el2
    40002004:	a90bd253 	stp	x19, x20, [x18, #184]
    40002008:	a90cda55 	stp	x21, x22, [x18, #200]
    4000200c:	a90de257 	stp	x23, x24, [x18, #216]
    40002010:	a90eea59 	stp	x25, x26, [x18, #232]
    40002014:	a90ff25b 	stp	x27, x28, [x18, #248]
    40002018:	d53c5200 	mrs	x0, esr_el2
    4000201c:	94005c6a 	bl	400191c4 <handle_system_register_access>
    40002020:	d53cd040 	mrs	x0, tpidr_el2
    40002024:	140000b0 	b	400022e4 <vcpu_restore_nonvolatile_and_run>

0000000040002028 <vcpu_switch>:
    40002028:	d53cd041 	mrs	x1, tpidr_el2
    4000202c:	a90bd033 	stp	x19, x20, [x1, #184]
    40002030:	a90cd835 	stp	x21, x22, [x1, #200]
    40002034:	a90de037 	stp	x23, x24, [x1, #216]
    40002038:	a90ee839 	stp	x25, x26, [x1, #232]
    4000203c:	a90ff03b 	stp	x27, x28, [x1, #248]
    40002040:	9104a03c 	add	x28, x1, #0x128
    40002044:	d53c00b8 	mrs	x24, vmpidr_el2
    40002048:	d53a0019 	mrs	x25, csselr_el1
    4000204c:	a8816798 	stp	x24, x25, [x28], #16
    40002050:	d5381002 	mrs	x2, sctlr_el1
    40002054:	d5381023 	mrs	x3, actlr_el1
    40002058:	a8810f82 	stp	x2, x3, [x28], #16
    4000205c:	d5381044 	mrs	x4, cpacr_el1
    40002060:	d5382005 	mrs	x5, ttbr0_el1
    40002064:	a8811784 	stp	x4, x5, [x28], #16
    40002068:	d5382026 	mrs	x6, ttbr1_el1
    4000206c:	d5382047 	mrs	x7, tcr_el1
    40002070:	a8811f86 	stp	x6, x7, [x28], #16
    40002074:	d5385208 	mrs	x8, esr_el1
    40002078:	d5385109 	mrs	x9, afsr0_el1
    4000207c:	a8812788 	stp	x8, x9, [x28], #16
    40002080:	d538512a 	mrs	x10, afsr1_el1
    40002084:	d538600b 	mrs	x11, far_el1
    40002088:	a8812f8a 	stp	x10, x11, [x28], #16
    4000208c:	d538a20c 	mrs	x12, mair_el1
    40002090:	d538c00d 	mrs	x13, vbar_el1
    40002094:	a881378c 	stp	x12, x13, [x28], #16
    40002098:	d538d02e 	mrs	x14, contextidr_el1
    4000209c:	d53bd04f 	mrs	x15, tpidr_el0
    400020a0:	a8813f8e 	stp	x14, x15, [x28], #16
    400020a4:	d53bd070 	mrs	x16, tpidrro_el0
    400020a8:	d538d091 	mrs	x17, tpidr_el1
    400020ac:	a8814790 	stp	x16, x17, [x28], #16
    400020b0:	d538a312 	mrs	x18, amair_el1
    400020b4:	d538e113 	mrs	x19, cntkctl_el1
    400020b8:	a8814f92 	stp	x18, x19, [x28], #16
    400020bc:	d5384114 	mrs	x20, sp_el0
    400020c0:	d53c4115 	mrs	x21, sp_el1
    400020c4:	a8815794 	stp	x20, x21, [x28], #16
    400020c8:	d5384036 	mrs	x22, elr_el1
    400020cc:	d5384017 	mrs	x23, spsr_el1
    400020d0:	a8815f96 	stp	x22, x23, [x28], #16
    400020d4:	d5387418 	mrs	x24, par_el1
    400020d8:	d53c1119 	mrs	x25, hcr_el2
    400020dc:	a8816798 	stp	x24, x25, [x28], #16
    400020e0:	d53ce11a 	mrs	x26, cnthctl_el2
    400020e4:	d53c211b 	mrs	x27, vttbr_el2
    400020e8:	a8816f9a 	stp	x26, x27, [x28], #16
    400020ec:	d53c1124 	mrs	x4, mdcr_el2
    400020f0:	d5300245 	mrs	x5, mdscr_el1
    400020f4:	a8811784 	stp	x4, x5, [x28], #16
    400020f8:	d53befe6 	mrs	x6, pmccfiltr_el0
    400020fc:	d53b9c07 	mrs	x7, pmcr_el0
    40002100:	a8811f86 	stp	x6, x7, [x28], #16
    40002104:	d53b9c28 	mrs	x8, pmcntenset_el0
    40002108:	d5389e29 	mrs	x9, pmintenset_el1
    4000210c:	a8812788 	stp	x8, x9, [x28], #16
    40002110:	91114022 	add	x2, x1, #0x450
    40002114:	d53ccb03 	mrs	x3, s3_4_c12_c11_0
    40002118:	d53cc9a4 	mrs	x4, s3_4_c12_c9_5
    4000211c:	a9001043 	stp	x3, x4, [x2]
    40002120:	9109003c 	add	x28, x1, #0x240
    40002124:	ac810780 	stp	q0, q1, [x28], #32
    40002128:	ac810f82 	stp	q2, q3, [x28], #32
    4000212c:	ac811784 	stp	q4, q5, [x28], #32
    40002130:	ac811f86 	stp	q6, q7, [x28], #32
    40002134:	ac812788 	stp	q8, q9, [x28], #32
    40002138:	ac812f8a 	stp	q10, q11, [x28], #32
    4000213c:	ac81378c 	stp	q12, q13, [x28], #32
    40002140:	ac813f8e 	stp	q14, q15, [x28], #32
    40002144:	ac814790 	stp	q16, q17, [x28], #32
    40002148:	ac814f92 	stp	q18, q19, [x28], #32
    4000214c:	ac815794 	stp	q20, q21, [x28], #32
    40002150:	ac815f96 	stp	q22, q23, [x28], #32
    40002154:	ac816798 	stp	q24, q25, [x28], #32
    40002158:	ac816f9a 	stp	q26, q27, [x28], #32
    4000215c:	ac81779c 	stp	q28, q29, [x28], #32
    40002160:	ac817f9e 	stp	q30, q31, [x28], #32
    40002164:	d53b4423 	mrs	x3, fpsr
    40002168:	d53b4404 	mrs	x4, fpcr
    4000216c:	a8821383 	stp	x3, x4, [x28], #32
    40002170:	aa0003f3 	mov	x19, x0
    40002174:	aa0103e0 	mov	x0, x1
    40002178:	9400424e 	bl	40012ab0 <complete_saving_state>
    4000217c:	aa1303e0 	mov	x0, x19

0000000040002180 <vcpu_restore_all_and_run>:
    40002180:	d51cd040 	msr	tpidr_el2, x0
    40002184:	aa0003f3 	mov	x19, x0
    40002188:	94004271 	bl	40012b4c <begin_restoring_state>
    4000218c:	aa1303e0 	mov	x0, x19
    40002190:	91090002 	add	x2, x0, #0x240
    40002194:	ad400440 	ldp	q0, q1, [x2]
    40002198:	ad410c42 	ldp	q2, q3, [x2, #32]
    4000219c:	ad421444 	ldp	q4, q5, [x2, #64]
    400021a0:	ad431c46 	ldp	q6, q7, [x2, #96]
    400021a4:	ad442448 	ldp	q8, q9, [x2, #128]
    400021a8:	ad452c4a 	ldp	q10, q11, [x2, #160]
    400021ac:	ad46344c 	ldp	q12, q13, [x2, #192]
    400021b0:	ad473c4e 	ldp	q14, q15, [x2, #224]
    400021b4:	ad484450 	ldp	q16, q17, [x2, #256]
    400021b8:	ad494c52 	ldp	q18, q19, [x2, #288]
    400021bc:	ad4a5454 	ldp	q20, q21, [x2, #320]
    400021c0:	ad4b5c56 	ldp	q22, q23, [x2, #352]
    400021c4:	ad4c6458 	ldp	q24, q25, [x2, #384]
    400021c8:	ad4d6c5a 	ldp	q26, q27, [x2, #416]
    400021cc:	ad4e745c 	ldp	q28, q29, [x2, #448]
    400021d0:	adcf7c5e 	ldp	q30, q31, [x2, #480]!
    400021d4:	a9421043 	ldp	x3, x4, [x2, #32]
    400021d8:	d51b4423 	msr	fpsr, x3
    400021dc:	d53b4405 	mrs	x5, fpcr
    400021e0:	eb0400bf 	cmp	x5, x4
    400021e4:	54000040 	b.eq	400021ec <vcpu_restore_lazy_and_run>  // b.none
    400021e8:	d51b4404 	msr	fpcr, x4

00000000400021ec <vcpu_restore_lazy_and_run>:
    400021ec:	9104a01c 	add	x28, x0, #0x128
    400021f0:	a8c16798 	ldp	x24, x25, [x28], #16
    400021f4:	d51c00b8 	msr	vmpidr_el2, x24
    400021f8:	d51a0019 	msr	csselr_el1, x25
    400021fc:	a8c10f82 	ldp	x2, x3, [x28], #16
    40002200:	d5181002 	msr	sctlr_el1, x2
    40002204:	d5181023 	msr	actlr_el1, x3
    40002208:	a8c11784 	ldp	x4, x5, [x28], #16
    4000220c:	d5181044 	msr	cpacr_el1, x4
    40002210:	d5182005 	msr	ttbr0_el1, x5
    40002214:	a8c11f86 	ldp	x6, x7, [x28], #16
    40002218:	d5182026 	msr	ttbr1_el1, x6
    4000221c:	d5182047 	msr	tcr_el1, x7
    40002220:	a8c12788 	ldp	x8, x9, [x28], #16
    40002224:	d5185208 	msr	esr_el1, x8
    40002228:	d5185109 	msr	afsr0_el1, x9
    4000222c:	a8c12f8a 	ldp	x10, x11, [x28], #16
    40002230:	d518512a 	msr	afsr1_el1, x10
    40002234:	d518600b 	msr	far_el1, x11
    40002238:	a8c1378c 	ldp	x12, x13, [x28], #16
    4000223c:	d518a20c 	msr	mair_el1, x12
    40002240:	d518c00d 	msr	vbar_el1, x13
    40002244:	a8c13f8e 	ldp	x14, x15, [x28], #16
    40002248:	d518d02e 	msr	contextidr_el1, x14
    4000224c:	d51bd04f 	msr	tpidr_el0, x15
    40002250:	a8c14790 	ldp	x16, x17, [x28], #16
    40002254:	d51bd070 	msr	tpidrro_el0, x16
    40002258:	d518d091 	msr	tpidr_el1, x17
    4000225c:	a8c14f92 	ldp	x18, x19, [x28], #16
    40002260:	d518a312 	msr	amair_el1, x18
    40002264:	d518e113 	msr	cntkctl_el1, x19
    40002268:	a8c15794 	ldp	x20, x21, [x28], #16
    4000226c:	d5184114 	msr	sp_el0, x20
    40002270:	d51c4115 	msr	sp_el1, x21
    40002274:	a8c15f96 	ldp	x22, x23, [x28], #16
    40002278:	d5184036 	msr	elr_el1, x22
    4000227c:	d5184017 	msr	spsr_el1, x23
    40002280:	a8c16798 	ldp	x24, x25, [x28], #16
    40002284:	d5187418 	msr	par_el1, x24
    40002288:	d51c1119 	msr	hcr_el2, x25
    4000228c:	a8c16f9a 	ldp	x26, x27, [x28], #16
    40002290:	d51ce11a 	msr	cnthctl_el2, x26
    40002294:	d51c211b 	msr	vttbr_el2, x27
    40002298:	a8c11784 	ldp	x4, x5, [x28], #16
    4000229c:	d51c1124 	msr	mdcr_el2, x4
    400022a0:	d5100245 	msr	mdscr_el1, x5
    400022a4:	a8c11f86 	ldp	x6, x7, [x28], #16
    400022a8:	d51befe6 	msr	pmccfiltr_el0, x6
    400022ac:	d51b9c07 	msr	pmcr_el0, x7
    400022b0:	a8c12788 	ldp	x8, x9, [x28], #16
    400022b4:	b2407ffb 	mov	x27, #0xffffffff            	// #4294967295
    400022b8:	d51b9c5b 	msr	pmcntenclr_el0, x27
    400022bc:	d51b9c28 	msr	pmcntenset_el0, x8
    400022c0:	d5189e5b 	msr	pmintenclr_el1, x27
    400022c4:	d5189e29 	msr	pmintenset_el1, x9
    400022c8:	91114002 	add	x2, x0, #0x450
    400022cc:	a9401043 	ldp	x3, x4, [x2]
    400022d0:	d51ccb03 	msr	s3_4_c12_c11_0, x3
    400022d4:	d51cc9a4 	msr	s3_4_c12_c9_5, x4
    400022d8:	aa0003f3 	mov	x19, x0
    400022dc:	94004238 	bl	40012bbc <maybe_invalidate_tlb>
    400022e0:	aa1303e0 	mov	x0, x19

00000000400022e4 <vcpu_restore_nonvolatile_and_run>:
    400022e4:	a94bd013 	ldp	x19, x20, [x0, #184]
    400022e8:	a94cd815 	ldp	x21, x22, [x0, #200]
    400022ec:	a94de017 	ldp	x23, x24, [x0, #216]
    400022f0:	a94ee819 	ldp	x25, x26, [x0, #232]
    400022f4:	a94ff01b 	ldp	x27, x28, [x0, #248]

00000000400022f8 <vcpu_restore_volatile_and_run>:
    400022f8:	a9441404 	ldp	x4, x5, [x0, #64]
    400022fc:	a9451c06 	ldp	x6, x7, [x0, #80]
    40002300:	a9462408 	ldp	x8, x9, [x0, #96]
    40002304:	a9472c0a 	ldp	x10, x11, [x0, #112]
    40002308:	a948340c 	ldp	x12, x13, [x0, #128]
    4000230c:	a9493c0e 	ldp	x14, x15, [x0, #144]
    40002310:	a94a4410 	ldp	x16, x17, [x0, #160]
    40002314:	f9405812 	ldr	x18, [x0, #176]
    40002318:	a950f81d 	ldp	x29, x30, [x0, #264]
    4000231c:	a9518801 	ldp	x1, x2, [x0, #280]
    40002320:	d51c4021 	msr	elr_el2, x1
    40002324:	d51c4002 	msr	spsr_el2, x2
    40002328:	a9430c02 	ldp	x2, x3, [x0, #48]
    4000232c:	a9420400 	ldp	x0, x1, [x0, #32]
    40002330:	d69f03e0 	eret
    40002334:	d503379f 	dsb	nsh
    40002338:	d5033fdf 	isb

000000004000233c <cpu_entry>:
    4000233c:	9400000c 	bl	4000236c <mm_enable>
    40002340:	94000005 	bl	40002354 <prepare_for_c>

0000000040002344 <cpu_init>:
    40002344:	940013ff 	bl	40007340 <cpu_main>
    40002348:	97ffff8e 	bl	40002180 <vcpu_restore_all_and_run>
    4000234c:	d503207f 	wfi
    40002350:	17ffffff 	b	4000234c <cpu_init+0x8>

0000000040002354 <prepare_for_c>:
    40002354:	d50041bf 	msr	spsel, #0x1
    40002358:	f9400401 	ldr	x1, [x0, #8]
    4000235c:	9100003f 	mov	sp, x1
    40002360:	10ffa502 	adr	x2, 40001800 <vector_table_el2>
    40002364:	d51cc002 	msr	vbar_el2, x2
    40002368:	d65f03c0 	ret

000000004000236c <mm_enable>:
    4000236c:	d50c871f 	tlbi	alle2
    40002370:	d50c87df 	tlbi	vmalls12e1
    40002374:	d00000e6 	adrp	x6, 40020000 <arch_mm_config>
    40002378:	910000c6 	add	x6, x6, #0x0
    4000237c:	a94008c1 	ldp	x1, x2, [x6]
    40002380:	a94110c3 	ldp	x3, x4, [x6, #16]
    40002384:	a94218c5 	ldp	x5, x6, [x6, #32]
    40002388:	d51c2001 	msr	ttbr0_el2, x1
    4000238c:	d51c2142 	msr	vtcr_el2, x2
    40002390:	d51ca203 	msr	mair_el2, x3
    40002394:	d51c2044 	msr	tcr_el2, x4
    40002398:	d5033f9f 	dsb	sy
    4000239c:	d5033fdf 	isb
    400023a0:	d51c1005 	msr	sctlr_el2, x5
    400023a4:	d5033fdf 	isb
    400023a8:	d65f03c0 	ret

00000000400023ac <cpio_get_file>:
    400023ac:	d10083ff 	sub	sp, sp, #0x20
    400023b0:	a9017bfd 	stp	x29, x30, [sp, #16]
    400023b4:	910043fd 	add	x29, sp, #0x10
    400023b8:	b00000e8 	adrp	x8, 4001f000 <cpus>
    400023bc:	f9406508 	ldr	x8, [x8, #200]
    400023c0:	f90007e8 	str	x8, [sp, #8]
    400023c4:	a940200c 	ldp	x12, x8, [x0]
    400023c8:	14000002 	b	400023d0 <cpio_get_file+0x24>
    400023cc:	35000b0e 	cbnz	w14, 4000252c <cpio_get_file+0x180>
    400023d0:	9100698a 	add	x10, x12, #0x1a
    400023d4:	eb0a011f 	cmp	x8, x10
    400023d8:	54000b23 	b.cc	4000253c <cpio_get_file+0x190>  // b.lo, b.ul, b.last
    400023dc:	39405589 	ldrb	w9, [x12, #21]
    400023e0:	aa0c03ed 	mov	x13, x12
    400023e4:	3940518b 	ldrb	w11, [x12, #20]
    400023e8:	33181d2b 	bfi	w11, w9, #8, #8
    400023ec:	11000569 	add	w9, w11, #0x1
    400023f0:	927f3d29 	and	x9, x9, #0x1fffe
    400023f4:	8b090149 	add	x9, x10, x9
    400023f8:	eb08013f 	cmp	x9, x8
    400023fc:	54000a08 	b.hi	4000253c <cpio_get_file+0x190>  // b.pmore
    40002400:	39405dab 	ldrb	w11, [x13, #23]
    40002404:	394059ac 	ldrb	w12, [x13, #22]
    40002408:	b3781d6c 	bfi	x12, x11, #8, #8
    4000240c:	394065ae 	ldrb	w14, [x13, #25]
    40002410:	394061ab 	ldrb	w11, [x13, #24]
    40002414:	b3781dcb 	bfi	x11, x14, #8, #8
    40002418:	b3703d8b 	bfi	x11, x12, #16, #16
    4000241c:	9100056c 	add	x12, x11, #0x1
    40002420:	927f7d8c 	and	x12, x12, #0x1fffffffe
    40002424:	8b0c012c 	add	x12, x9, x12
    40002428:	eb08019f 	cmp	x12, x8
    4000242c:	54000888 	b.hi	4000253c <cpio_get_file+0x190>  // b.pmore
    40002430:	3940014e 	ldrb	w14, [x10]
    40002434:	710151df 	cmp	w14, #0x54
    40002438:	540003c1 	b.ne	400024b0 <cpio_get_file+0x104>  // b.any
    4000243c:	39406dae 	ldrb	w14, [x13, #27]
    40002440:	710149df 	cmp	w14, #0x52
    40002444:	54000361 	b.ne	400024b0 <cpio_get_file+0x104>  // b.any
    40002448:	394071ae 	ldrb	w14, [x13, #28]
    4000244c:	710105df 	cmp	w14, #0x41
    40002450:	54000301 	b.ne	400024b0 <cpio_get_file+0x104>  // b.any
    40002454:	394075ae 	ldrb	w14, [x13, #29]
    40002458:	710125df 	cmp	w14, #0x49
    4000245c:	540002a1 	b.ne	400024b0 <cpio_get_file+0x104>  // b.any
    40002460:	394079ae 	ldrb	w14, [x13, #30]
    40002464:	710131df 	cmp	w14, #0x4c
    40002468:	54000241 	b.ne	400024b0 <cpio_get_file+0x104>  // b.any
    4000246c:	39407dae 	ldrb	w14, [x13, #31]
    40002470:	710115df 	cmp	w14, #0x45
    40002474:	540001e1 	b.ne	400024b0 <cpio_get_file+0x104>  // b.any
    40002478:	394081ae 	ldrb	w14, [x13, #32]
    4000247c:	710149df 	cmp	w14, #0x52
    40002480:	54000181 	b.ne	400024b0 <cpio_get_file+0x104>  // b.any
    40002484:	394085ae 	ldrb	w14, [x13, #33]
    40002488:	710085df 	cmp	w14, #0x21
    4000248c:	54000121 	b.ne	400024b0 <cpio_get_file+0x104>  // b.any
    40002490:	394089ae 	ldrb	w14, [x13, #34]
    40002494:	710085df 	cmp	w14, #0x21
    40002498:	540000c1 	b.ne	400024b0 <cpio_get_file+0x104>  // b.any
    4000249c:	39408dae 	ldrb	w14, [x13, #35]
    400024a0:	710085df 	cmp	w14, #0x21
    400024a4:	54000061 	b.ne	400024b0 <cpio_get_file+0x104>  // b.any
    400024a8:	394091ad 	ldrb	w13, [x13, #36]
    400024ac:	3400048d 	cbz	w13, 4000253c <cpio_get_file+0x190>
    400024b0:	aa1f03ed 	mov	x13, xzr
    400024b4:	8b0d002f 	add	x15, x1, x13
    400024b8:	8b0d0150 	add	x16, x10, x13
    400024bc:	39400211 	ldrb	w17, [x16]
    400024c0:	394001f2 	ldrb	w18, [x15]
    400024c4:	6b12023f 	cmp	w17, w18
    400024c8:	1a9f17ee 	cset	w14, eq  // eq = none
    400024cc:	7100023f 	cmp	w17, #0x0
    400024d0:	7a521220 	ccmp	w17, w18, #0x0, ne  // ne = any
    400024d4:	54fff7c1 	b.ne	400023cc <cpio_get_file+0x20>  // b.any
    400024d8:	39400611 	ldrb	w17, [x16, #1]
    400024dc:	394005ee 	ldrb	w14, [x15, #1]
    400024e0:	6b0e023f 	cmp	w17, w14
    400024e4:	1a9f17ee 	cset	w14, eq  // eq = none
    400024e8:	34fff731 	cbz	w17, 400023cc <cpio_get_file+0x20>
    400024ec:	54fff701 	b.ne	400023cc <cpio_get_file+0x20>  // b.any
    400024f0:	39400a11 	ldrb	w17, [x16, #2]
    400024f4:	394009ee 	ldrb	w14, [x15, #2]
    400024f8:	6b0e023f 	cmp	w17, w14
    400024fc:	1a9f17ee 	cset	w14, eq  // eq = none
    40002500:	34fff671 	cbz	w17, 400023cc <cpio_get_file+0x20>
    40002504:	54fff641 	b.ne	400023cc <cpio_get_file+0x20>  // b.any
    40002508:	39400e10 	ldrb	w16, [x16, #3]
    4000250c:	39400dee 	ldrb	w14, [x15, #3]
    40002510:	6b0e021f 	cmp	w16, w14
    40002514:	1a9f17ee 	cset	w14, eq  // eq = none
    40002518:	34fff5b0 	cbz	w16, 400023cc <cpio_get_file+0x20>
    4000251c:	54fff581 	b.ne	400023cc <cpio_get_file+0x20>  // b.any
    40002520:	910011ad 	add	x13, x13, #0x4
    40002524:	f10081bf 	cmp	x13, #0x20
    40002528:	54fffc61 	b.ne	400024b4 <cpio_get_file+0x108>  // b.any
    4000252c:	8b0b0128 	add	x8, x9, x11
    40002530:	52800020 	mov	w0, #0x1                   	// #1
    40002534:	a9002049 	stp	x9, x8, [x2]
    40002538:	14000002 	b	40002540 <cpio_get_file+0x194>
    4000253c:	2a1f03e0 	mov	w0, wzr
    40002540:	b00000e9 	adrp	x9, 4001f000 <cpus>
    40002544:	f94007e8 	ldr	x8, [sp, #8]
    40002548:	f9406529 	ldr	x9, [x9, #200]
    4000254c:	eb08013f 	cmp	x9, x8
    40002550:	54000081 	b.ne	40002560 <cpio_get_file+0x1b4>  // b.any
    40002554:	a9417bfd 	ldp	x29, x30, [sp, #16]
    40002558:	910083ff 	add	sp, sp, #0x20
    4000255c:	d65f03c0 	ret
    40002560:	94002ee3 	bl	4000e0ec <__stack_chk_fail>

0000000040002564 <one_time_init_mm>:
    40002564:	d10203ff 	sub	sp, sp, #0x80
    40002568:	a9026ffc 	stp	x28, x27, [sp, #32]
    4000256c:	a90367fa 	stp	x26, x25, [sp, #48]
    40002570:	a9045ff8 	stp	x24, x23, [sp, #64]
    40002574:	a90557f6 	stp	x22, x21, [sp, #80]
    40002578:	a9064ff4 	stp	x20, x19, [sp, #96]
    4000257c:	a9077bfd 	stp	x29, x30, [sp, #112]
    40002580:	9101c3fd 	add	x29, sp, #0x70
    40002584:	b00000e8 	adrp	x8, 4001f000 <cpus>
    40002588:	f9406508 	ldr	x8, [x8, #200]
    4000258c:	d00000c0 	adrp	x0, 4001c000 <arch_mm_init.pa_bits_table+0xa68>
    40002590:	91305000 	add	x0, x0, #0xc14
    40002594:	f9000fe8 	str	x8, [sp, #24]
    40002598:	94002dd2 	bl	4000dce0 <dlog>
    4000259c:	d00000e8 	adrp	x8, 40020000 <arch_mm_config>
    400025a0:	9100e108 	add	x8, x8, #0x38
    400025a4:	5282000b 	mov	w11, #0x1000                	// #4096
    400025a8:	a900fd0b 	stp	x11, xzr, [x8, #8]
    400025ac:	f00000e9 	adrp	x9, 40021000 <ptable_buf>
    400025b0:	913ffd29 	add	x9, x9, #0xfff
    400025b4:	a901fd1f 	stp	xzr, xzr, [x8, #24]
    400025b8:	5296002a 	mov	w10, #0xb001                	// #45057
    400025bc:	72a0006a 	movk	w10, #0x3, lsl #16
    400025c0:	8b0a012a 	add	x10, x9, x10
    400025c4:	b90017ff 	str	wzr, [sp, #20]
    400025c8:	b94017eb 	ldr	w11, [sp, #20]
    400025cc:	92402d4c 	and	x12, x10, #0xfff
    400025d0:	b900010b 	str	w11, [x8]
    400025d4:	cb0c014b 	sub	x11, x10, x12
    400025d8:	92402d2a 	and	x10, x9, #0xfff
    400025dc:	cb0a012a 	sub	x10, x9, x10
    400025e0:	eb0a016b 	subs	x11, x11, x10
    400025e4:	1a9f87ec 	cset	w12, ls  // ls = plast
    400025e8:	f140057f 	cmp	x11, #0x1, lsl #12
    400025ec:	1a9f27eb 	cset	w11, cc  // cc = lo, ul, last
    400025f0:	2a0b018b 	orr	w11, w12, w11
    400025f4:	f0000433 	adrp	x19, 40089000 <dlog_lock_enabled>
    400025f8:	3700042b 	tbnz	w11, #0, 4000267c <one_time_init_mm+0x118>
    400025fc:	5296002b 	mov	w11, #0xb001                	// #45057
    40002600:	72a0006b 	movk	w11, #0x3, lsl #16
    40002604:	8b0b012b 	add	x11, x9, x11
    40002608:	92402d6c 	and	x12, x11, #0xfff
    4000260c:	cb0c016b 	sub	x11, x11, x12
    40002610:	f900054b 	str	x11, [x10, #8]
    40002614:	3940a26a 	ldrb	w10, [x19, #40]
    40002618:	3600028a 	tbz	w10, #0, 40002668 <one_time_init_mm+0x104>
    4000261c:	5280002b 	mov	w11, #0x1                   	// #1
    40002620:	d50320bf 	sevl
    40002624:	d503205f 	wfe
    40002628:	885ffd0a 	ldaxr	w10, [x8]
    4000262c:	35ffffca 	cbnz	w10, 40002624 <one_time_init_mm+0xc0>
    40002630:	880a7d0b 	stxr	w10, w11, [x8]
    40002634:	35ffffaa 	cbnz	w10, 40002628 <one_time_init_mm+0xc4>
    40002638:	3940a26a 	ldrb	w10, [x19, #40]
    4000263c:	f940090b 	ldr	x11, [x8, #16]
    40002640:	92402d2c 	and	x12, x9, #0xfff
    40002644:	cb0c0129 	sub	x9, x9, x12
    40002648:	7100055f 	cmp	w10, #0x1
    4000264c:	f900012b 	str	x11, [x9]
    40002650:	f9000909 	str	x9, [x8, #16]
    40002654:	54000141 	b.ne	4000267c <one_time_init_mm+0x118>  // b.any
    40002658:	d00000e8 	adrp	x8, 40020000 <arch_mm_config>
    4000265c:	9100e108 	add	x8, x8, #0x38
    40002660:	889ffd1f 	stlr	wzr, [x8]
    40002664:	14000006 	b	4000267c <one_time_init_mm+0x118>
    40002668:	92402d28 	and	x8, x9, #0xfff
    4000266c:	cb080128 	sub	x8, x9, x8
    40002670:	d00000e9 	adrp	x9, 40020000 <arch_mm_config>
    40002674:	f900011f 	str	xzr, [x8]
    40002678:	f9002528 	str	x8, [x9, #72]
    4000267c:	b00000f6 	adrp	x22, 4001f000 <cpus>
    40002680:	b00000f4 	adrp	x20, 4001f000 <cpus>
    40002684:	f9406ad6 	ldr	x22, [x22, #208]
    40002688:	f9406e94 	ldr	x20, [x20, #216]
    4000268c:	d00000c0 	adrp	x0, 4001c000 <arch_mm_init.pa_bits_table+0xa68>
    40002690:	912be400 	add	x0, x0, #0xaf9
    40002694:	aa1603e1 	mov	x1, x22
    40002698:	aa1403e2 	mov	x2, x20
    4000269c:	94002d91 	bl	4000dce0 <dlog>
    400026a0:	b00000e1 	adrp	x1, 4001f000 <cpus>
    400026a4:	b00000e2 	adrp	x2, 4001f000 <cpus>
    400026a8:	f9407021 	ldr	x1, [x1, #224]
    400026ac:	f9407442 	ldr	x2, [x2, #232]
    400026b0:	d00000c0 	adrp	x0, 4001c000 <arch_mm_init.pa_bits_table+0xa68>
    400026b4:	912cc000 	add	x0, x0, #0xb30
    400026b8:	94002d8a 	bl	4000dce0 <dlog>
    400026bc:	b00000e1 	adrp	x1, 4001f000 <cpus>
    400026c0:	b00000e2 	adrp	x2, 4001f000 <cpus>
    400026c4:	f9407821 	ldr	x1, [x1, #240]
    400026c8:	f9407c42 	ldr	x2, [x2, #248]
    400026cc:	d00000c0 	adrp	x0, 4001c000 <arch_mm_init.pa_bits_table+0xa68>
    400026d0:	912d2400 	add	x0, x0, #0xb49
    400026d4:	94002d83 	bl	4000dce0 <dlog>
    400026d8:	d00000e8 	adrp	x8, 40020000 <arch_mm_config>
    400026dc:	9100e108 	add	x8, x8, #0x38
    400026e0:	3940a269 	ldrb	w9, [x19, #40]
    400026e4:	7100053f 	cmp	w9, #0x1
    400026e8:	54000101 	b.ne	40002708 <one_time_init_mm+0x1a4>  // b.any
    400026ec:	5280002a 	mov	w10, #0x1                   	// #1
    400026f0:	d50320bf 	sevl
    400026f4:	d503205f 	wfe
    400026f8:	885ffd09 	ldaxr	w9, [x8]
    400026fc:	35ffffc9 	cbnz	w9, 400026f4 <one_time_init_mm+0x190>
    40002700:	88097d0a 	stxr	w9, w10, [x8]
    40002704:	35ffffa9 	cbnz	w9, 400026f8 <one_time_init_mm+0x194>
    40002708:	f9400d04 	ldr	x4, [x8, #24]
    4000270c:	b4000084 	cbz	x4, 4000271c <one_time_init_mm+0x1b8>
    40002710:	f9400089 	ldr	x9, [x4]
    40002714:	f9000d09 	str	x9, [x8, #24]
    40002718:	1400000d 	b	4000274c <one_time_init_mm+0x1e8>
    4000271c:	f9400904 	ldr	x4, [x8, #16]
    40002720:	b4000164 	cbz	x4, 4000274c <one_time_init_mm+0x1e8>
    40002724:	f9400509 	ldr	x9, [x8, #8]
    40002728:	8b040129 	add	x9, x9, x4
    4000272c:	f940048a 	ldr	x10, [x4, #8]
    40002730:	eb09015f 	cmp	x10, x9
    40002734:	54000089 	b.ls	40002744 <one_time_init_mm+0x1e0>  // b.plast
    40002738:	a9402c8a 	ldp	x10, x11, [x4]
    4000273c:	a9002d2a 	stp	x10, x11, [x9]
    40002740:	14000002 	b	40002748 <one_time_init_mm+0x1e4>
    40002744:	f9400089 	ldr	x9, [x4]
    40002748:	f9000909 	str	x9, [x8, #16]
    4000274c:	3940a269 	ldrb	w9, [x19, #40]
    40002750:	7100053f 	cmp	w9, #0x1
    40002754:	54000041 	b.ne	4000275c <one_time_init_mm+0x1f8>  // b.any
    40002758:	889ffd1f 	stlr	wzr, [x8]
    4000275c:	b5000124 	cbnz	x4, 40002780 <one_time_init_mm+0x21c>
    40002760:	f9401108 	ldr	x8, [x8, #32]
    40002764:	b5fffbe8 	cbnz	x8, 400026e0 <one_time_init_mm+0x17c>
    40002768:	f00000c0 	adrp	x0, 4001d000 <arch_mm_init.pa_bits_table+0x1a68>
    4000276c:	91169400 	add	x0, x0, #0x5a5
    40002770:	94002d5c 	bl	4000dce0 <dlog>
    40002774:	b00000c0 	adrp	x0, 4001b000 <rodata_begin>
    40002778:	9132bc00 	add	x0, x0, #0xcaf
    4000277c:	94003f17 	bl	400123d8 <panic>
    40002780:	aa1f03e8 	mov	x8, xzr
    40002784:	8b080089 	add	x9, x4, x8
    40002788:	91008108 	add	x8, x8, #0x20
    4000278c:	f140051f 	cmp	x8, #0x1, lsl #12
    40002790:	a9007d3f 	stp	xzr, xzr, [x9]
    40002794:	a9017d3f 	stp	xzr, xzr, [x9, #16]
    40002798:	54ffff61 	b.ne	40002784 <one_time_init_mm+0x220>  // b.any
    4000279c:	d280c035 	mov	x21, #0x601                 	// #1537
    400027a0:	f2e00815 	movk	x21, #0x40, lsl #48
    400027a4:	52820013 	mov	w19, #0x1000                	// #4096
    400027a8:	72a12013 	movk	w19, #0x900, lsl #16
    400027ac:	52a12000 	mov	w0, #0x9000000             	// #150994944
    400027b0:	f0000428 	adrp	x8, 40089000 <dlog_lock_enabled>
    400027b4:	f9001104 	str	x4, [x8, #32]
    400027b8:	d00000e7 	adrp	x7, 40020000 <arch_mm_config>
    400027bc:	9100e0e7 	add	x7, x7, #0x38
    400027c0:	aa1303e1 	mov	x1, x19
    400027c4:	aa0003e2 	mov	x2, x0
    400027c8:	aa1503e3 	mov	x3, x21
    400027cc:	52800045 	mov	w5, #0x2                   	// #2
    400027d0:	52800086 	mov	w6, #0x4                   	// #4
    400027d4:	94003c15 	bl	40011828 <mm_map_level>
    400027d8:	36000240 	tbz	w0, #0, 40002820 <one_time_init_mm+0x2bc>
    400027dc:	f0000428 	adrp	x8, 40089000 <dlog_lock_enabled>
    400027e0:	f9401104 	ldr	x4, [x8, #32]
    400027e4:	52a12000 	mov	w0, #0x9000000             	// #150994944
    400027e8:	d00000e7 	adrp	x7, 40020000 <arch_mm_config>
    400027ec:	9100e0e7 	add	x7, x7, #0x38
    400027f0:	528000a6 	mov	w6, #0x5                   	// #5
    400027f4:	aa1303e1 	mov	x1, x19
    400027f8:	aa0003e2 	mov	x2, x0
    400027fc:	aa1503e3 	mov	x3, x21
    40002800:	52800045 	mov	w5, #0x2                   	// #2
    40002804:	94003c09 	bl	40011828 <mm_map_level>
    40002808:	36003600 	tbz	w0, #0, 40002ec8 <one_time_init_mm+0x964>
    4000280c:	d5033a9f 	dsb	ishst
    40002810:	52920008 	mov	w8, #0x9000                	// #36864
    40002814:	d50c8328 	tlbi	vae2is, x8
    40002818:	d5033b9f 	dsb	ish
    4000281c:	d5033fdf 	isb
    40002820:	913ffe88 	add	x8, x20, #0xfff
    40002824:	d2c01014 	mov	x20, #0x8000000000          	// #549755813888
    40002828:	9274cd18 	and	x24, x8, #0xfffffffffffff000
    4000282c:	eb14031f 	cmp	x24, x20
    40002830:	9a988288 	csel	x8, x20, x24, hi  // hi = pmore
    40002834:	92748ec9 	and	x9, x22, #0xfffffffff000
    40002838:	f90007e9 	str	x9, [sp, #8]
    4000283c:	eb08013f 	cmp	x9, x8
    40002840:	54000942 	b.cs	40002968 <one_time_init_mm+0x404>  // b.hs, b.nlast
    40002844:	b00000f9 	adrp	x25, 4001f000 <cpus>
    40002848:	f9406b39 	ldr	x25, [x25, #208]
    4000284c:	f0000429 	adrp	x9, 40089000 <dlog_lock_enabled>
    40002850:	f9401129 	ldr	x9, [x9, #32]
    40002854:	b00000f7 	adrp	x23, 4001f000 <cpus>
    40002858:	d00000fa 	adrp	x26, 40020000 <arch_mm_config>
    4000285c:	9100e35a 	add	x26, x26, #0x38
    40002860:	f94007f3 	ldr	x19, [sp, #8]
    40002864:	5280d0bc 	mov	w28, #0x685                 	// #1669
    40002868:	f9406ef7 	ldr	x23, [x23, #216]
    4000286c:	d35bbf36 	ubfx	x22, x25, #27, #21
    40002870:	927422c8 	and	x8, x22, #0x1ff000
    40002874:	8b08013b 	add	x27, x9, x8
    40002878:	eb14031f 	cmp	x24, x20
    4000287c:	9a988281 	csel	x1, x20, x24, hi  // hi = pmore
    40002880:	aa1303e0 	mov	x0, x19
    40002884:	aa1303e2 	mov	x2, x19
    40002888:	aa1c03e3 	mov	x3, x28
    4000288c:	aa1b03e4 	mov	x4, x27
    40002890:	52800045 	mov	w5, #0x2                   	// #2
    40002894:	52800086 	mov	w6, #0x4                   	// #4
    40002898:	aa1a03e7 	mov	x7, x26
    4000289c:	94003be3 	bl	40011828 <mm_map_level>
    400028a0:	360009e0 	tbz	w0, #0, 400029dc <one_time_init_mm+0x478>
    400028a4:	8b140268 	add	x8, x19, x20
    400028a8:	92596113 	and	x19, x8, #0xffffff8000000000
    400028ac:	913ffee8 	add	x8, x23, #0xfff
    400028b0:	9274cd08 	and	x8, x8, #0xfffffffffffff000
    400028b4:	eb14011f 	cmp	x8, x20
    400028b8:	9a888289 	csel	x9, x20, x8, hi  // hi = pmore
    400028bc:	9140077b 	add	x27, x27, #0x1, lsl #12
    400028c0:	eb09027f 	cmp	x19, x9
    400028c4:	54fffda3 	b.cc	40002878 <one_time_init_mm+0x314>  // b.lo, b.ul, b.last
    400028c8:	d2c01017 	mov	x23, #0x8000000000          	// #549755813888
    400028cc:	eb17011f 	cmp	x8, x23
    400028d0:	9a8882e8 	csel	x8, x23, x8, hi  // hi = pmore
    400028d4:	92748f3a 	and	x26, x25, #0xfffffffff000
    400028d8:	eb08035f 	cmp	x26, x8
    400028dc:	54000462 	b.cs	40002968 <one_time_init_mm+0x404>  // b.hs, b.nlast
    400028e0:	b00000e9 	adrp	x9, 4001f000 <cpus>
    400028e4:	f9406d29 	ldr	x9, [x9, #216]
    400028e8:	f000042a 	adrp	x10, 40089000 <dlog_lock_enabled>
    400028ec:	f940114a 	ldr	x10, [x10, #32]
    400028f0:	927422c8 	and	x8, x22, #0x1ff000
    400028f4:	528000b6 	mov	w22, #0x5                   	// #5
    400028f8:	913ffd29 	add	x9, x9, #0xfff
    400028fc:	d00000fb 	adrp	x27, 40020000 <arch_mm_config>
    40002900:	9100e37b 	add	x27, x27, #0x38
    40002904:	8b08015c 	add	x28, x10, x8
    40002908:	5280d0b3 	mov	w19, #0x685                 	// #1669
    4000290c:	9274cd39 	and	x25, x9, #0xfffffffffffff000
    40002910:	eb17033f 	cmp	x25, x23
    40002914:	9a9982e1 	csel	x1, x23, x25, hi  // hi = pmore
    40002918:	aa1a03e0 	mov	x0, x26
    4000291c:	aa1a03e2 	mov	x2, x26
    40002920:	aa1303e3 	mov	x3, x19
    40002924:	aa1c03e4 	mov	x4, x28
    40002928:	52800045 	mov	w5, #0x2                   	// #2
    4000292c:	2a1603e6 	mov	w6, w22
    40002930:	aa1b03e7 	mov	x7, x27
    40002934:	94003bbd 	bl	40011828 <mm_map_level>
    40002938:	36002c80 	tbz	w0, #0, 40002ec8 <one_time_init_mm+0x964>
    4000293c:	8b170348 	add	x8, x26, x23
    40002940:	9259611a 	and	x26, x8, #0xffffff8000000000
    40002944:	b00000e8 	adrp	x8, 4001f000 <cpus>
    40002948:	f9406d08 	ldr	x8, [x8, #216]
    4000294c:	913ffd08 	add	x8, x8, #0xfff
    40002950:	9274cd08 	and	x8, x8, #0xfffffffffffff000
    40002954:	eb17011f 	cmp	x8, x23
    40002958:	9a8882e8 	csel	x8, x23, x8, hi  // hi = pmore
    4000295c:	9140079c 	add	x28, x28, #0x1, lsl #12
    40002960:	eb08035f 	cmp	x26, x8
    40002964:	54fffd63 	b.cc	40002910 <one_time_init_mm+0x3ac>  // b.lo, b.ul, b.last
    40002968:	d5033a9f 	dsb	ishst
    4000296c:	f94007e9 	ldr	x9, [sp, #8]
    40002970:	eb14031f 	cmp	x24, x20
    40002974:	9a988288 	csel	x8, x20, x24, hi  // hi = pmore
    40002978:	cb090108 	sub	x8, x8, x9
    4000297c:	f148011f 	cmp	x8, #0x200, lsl #12
    40002980:	54000069 	b.ls	4000298c <one_time_init_mm+0x428>  // b.plast
    40002984:	d50c831f 	tlbi	alle2is
    40002988:	14000013 	b	400029d4 <one_time_init_mm+0x470>
    4000298c:	b00000e8 	adrp	x8, 4001f000 <cpus>
    40002990:	f9406d08 	ldr	x8, [x8, #216]
    40002994:	b00000ea 	adrp	x10, 4001f000 <cpus>
    40002998:	f940694a 	ldr	x10, [x10, #208]
    4000299c:	d2c01009 	mov	x9, #0x8000000000          	// #549755813888
    400029a0:	913ffd08 	add	x8, x8, #0xfff
    400029a4:	9274cd08 	and	x8, x8, #0xfffffffffffff000
    400029a8:	eb09011f 	cmp	x8, x9
    400029ac:	9a88812b 	csel	x11, x9, x8, hi  // hi = pmore
    400029b0:	d34cbd4a 	ubfx	x10, x10, #12, #36
    400029b4:	eb4b315f 	cmp	x10, x11, lsr #12
    400029b8:	540000e2 	b.cs	400029d4 <one_time_init_mm+0x470>  // b.hs, b.nlast
    400029bc:	eb09011f 	cmp	x8, x9
    400029c0:	d50c832a 	tlbi	vae2is, x10
    400029c4:	9100054a 	add	x10, x10, #0x1
    400029c8:	9a88812b 	csel	x11, x9, x8, hi  // hi = pmore
    400029cc:	eb4b315f 	cmp	x10, x11, lsr #12
    400029d0:	54ffff61 	b.ne	400029bc <one_time_init_mm+0x458>  // b.any
    400029d4:	d5033b9f 	dsb	ish
    400029d8:	d5033fdf 	isb
    400029dc:	b00000e8 	adrp	x8, 4001f000 <cpus>
    400029e0:	f9407508 	ldr	x8, [x8, #232]
    400029e4:	b00000e9 	adrp	x9, 4001f000 <cpus>
    400029e8:	f9407129 	ldr	x9, [x9, #224]
    400029ec:	d2c01017 	mov	x23, #0x8000000000          	// #549755813888
    400029f0:	913ffd08 	add	x8, x8, #0xfff
    400029f4:	9274cd14 	and	x20, x8, #0xfffffffffffff000
    400029f8:	eb17029f 	cmp	x20, x23
    400029fc:	9a9482e8 	csel	x8, x23, x20, hi  // hi = pmore
    40002a00:	92748d3b 	and	x27, x9, #0xfffffffff000
    40002a04:	eb08037f 	cmp	x27, x8
    40002a08:	54000942 	b.cs	40002b30 <one_time_init_mm+0x5cc>  // b.hs, b.nlast
    40002a0c:	b00000e8 	adrp	x8, 4001f000 <cpus>
    40002a10:	f9407108 	ldr	x8, [x8, #224]
    40002a14:	f0000429 	adrp	x9, 40089000 <dlog_lock_enabled>
    40002a18:	f9401129 	ldr	x9, [x9, #32]
    40002a1c:	b00000fa 	adrp	x26, 4001f000 <cpus>
    40002a20:	d00000f3 	adrp	x19, 40020000 <arch_mm_config>
    40002a24:	9100e273 	add	x19, x19, #0x38
    40002a28:	f940775a 	ldr	x26, [x26, #232]
    40002a2c:	d35bbd19 	ubfx	x25, x8, #27, #21
    40002a30:	92742328 	and	x8, x25, #0x1ff000
    40002a34:	8b080138 	add	x24, x9, x8
    40002a38:	aa1b03f6 	mov	x22, x27
    40002a3c:	eb17029f 	cmp	x20, x23
    40002a40:	910212a3 	add	x3, x21, #0x84
    40002a44:	aa1603e0 	mov	x0, x22
    40002a48:	9a9482e1 	csel	x1, x23, x20, hi  // hi = pmore
    40002a4c:	aa1603e2 	mov	x2, x22
    40002a50:	aa1803e4 	mov	x4, x24
    40002a54:	52800045 	mov	w5, #0x2                   	// #2
    40002a58:	52800086 	mov	w6, #0x4                   	// #4
    40002a5c:	aa1303e7 	mov	x7, x19
    40002a60:	94003b72 	bl	40011828 <mm_map_level>
    40002a64:	360009e0 	tbz	w0, #0, 40002ba0 <one_time_init_mm+0x63c>
    40002a68:	8b1702c8 	add	x8, x22, x23
    40002a6c:	92596116 	and	x22, x8, #0xffffff8000000000
    40002a70:	913fff48 	add	x8, x26, #0xfff
    40002a74:	9274cd08 	and	x8, x8, #0xfffffffffffff000
    40002a78:	eb17011f 	cmp	x8, x23
    40002a7c:	9a8882e9 	csel	x9, x23, x8, hi  // hi = pmore
    40002a80:	91400718 	add	x24, x24, #0x1, lsl #12
    40002a84:	eb0902df 	cmp	x22, x9
    40002a88:	54fffda3 	b.cc	40002a3c <one_time_init_mm+0x4d8>  // b.lo, b.ul, b.last
    40002a8c:	b00000e9 	adrp	x9, 4001f000 <cpus>
    40002a90:	f9407129 	ldr	x9, [x9, #224]
    40002a94:	d2c01016 	mov	x22, #0x8000000000          	// #549755813888
    40002a98:	eb16011f 	cmp	x8, x22
    40002a9c:	9a8882c8 	csel	x8, x22, x8, hi  // hi = pmore
    40002aa0:	92748d38 	and	x24, x9, #0xfffffffff000
    40002aa4:	eb08031f 	cmp	x24, x8
    40002aa8:	54000442 	b.cs	40002b30 <one_time_init_mm+0x5cc>  // b.hs, b.nlast
    40002aac:	b00000e9 	adrp	x9, 4001f000 <cpus>
    40002ab0:	f9407529 	ldr	x9, [x9, #232]
    40002ab4:	f000042a 	adrp	x10, 40089000 <dlog_lock_enabled>
    40002ab8:	f940114a 	ldr	x10, [x10, #32]
    40002abc:	92742328 	and	x8, x25, #0x1ff000
    40002ac0:	913ffd29 	add	x9, x9, #0xfff
    40002ac4:	9274cd3c 	and	x28, x9, #0xfffffffffffff000
    40002ac8:	8b080159 	add	x25, x10, x8
    40002acc:	d00000f3 	adrp	x19, 40020000 <arch_mm_config>
    40002ad0:	9100e273 	add	x19, x19, #0x38
    40002ad4:	528000ba 	mov	w26, #0x5                   	// #5
    40002ad8:	eb16039f 	cmp	x28, x22
    40002adc:	910212a3 	add	x3, x21, #0x84
    40002ae0:	aa1803e0 	mov	x0, x24
    40002ae4:	9a9c82c1 	csel	x1, x22, x28, hi  // hi = pmore
    40002ae8:	aa1803e2 	mov	x2, x24
    40002aec:	aa1903e4 	mov	x4, x25
    40002af0:	52800045 	mov	w5, #0x2                   	// #2
    40002af4:	2a1a03e6 	mov	w6, w26
    40002af8:	aa1303e7 	mov	x7, x19
    40002afc:	94003b4b 	bl	40011828 <mm_map_level>
    40002b00:	36001e40 	tbz	w0, #0, 40002ec8 <one_time_init_mm+0x964>
    40002b04:	8b160308 	add	x8, x24, x22
    40002b08:	92596118 	and	x24, x8, #0xffffff8000000000
    40002b0c:	b00000e8 	adrp	x8, 4001f000 <cpus>
    40002b10:	f9407508 	ldr	x8, [x8, #232]
    40002b14:	913ffd08 	add	x8, x8, #0xfff
    40002b18:	9274cd08 	and	x8, x8, #0xfffffffffffff000
    40002b1c:	eb16011f 	cmp	x8, x22
    40002b20:	9a8882c8 	csel	x8, x22, x8, hi  // hi = pmore
    40002b24:	91400739 	add	x25, x25, #0x1, lsl #12
    40002b28:	eb08031f 	cmp	x24, x8
    40002b2c:	54fffd63 	b.cc	40002ad8 <one_time_init_mm+0x574>  // b.lo, b.ul, b.last
    40002b30:	eb17029f 	cmp	x20, x23
    40002b34:	9a9482e8 	csel	x8, x23, x20, hi  // hi = pmore
    40002b38:	cb1b0108 	sub	x8, x8, x27
    40002b3c:	f148011f 	cmp	x8, #0x200, lsl #12
    40002b40:	d5033a9f 	dsb	ishst
    40002b44:	54000069 	b.ls	40002b50 <one_time_init_mm+0x5ec>  // b.plast
    40002b48:	d50c831f 	tlbi	alle2is
    40002b4c:	14000013 	b	40002b98 <one_time_init_mm+0x634>
    40002b50:	b00000e8 	adrp	x8, 4001f000 <cpus>
    40002b54:	f9407508 	ldr	x8, [x8, #232]
    40002b58:	b00000ea 	adrp	x10, 4001f000 <cpus>
    40002b5c:	f940714a 	ldr	x10, [x10, #224]
    40002b60:	d2c01009 	mov	x9, #0x8000000000          	// #549755813888
    40002b64:	913ffd08 	add	x8, x8, #0xfff
    40002b68:	9274cd08 	and	x8, x8, #0xfffffffffffff000
    40002b6c:	eb09011f 	cmp	x8, x9
    40002b70:	9a88812b 	csel	x11, x9, x8, hi  // hi = pmore
    40002b74:	d34cbd4a 	ubfx	x10, x10, #12, #36
    40002b78:	eb4b315f 	cmp	x10, x11, lsr #12
    40002b7c:	540000e2 	b.cs	40002b98 <one_time_init_mm+0x634>  // b.hs, b.nlast
    40002b80:	eb09011f 	cmp	x8, x9
    40002b84:	d50c832a 	tlbi	vae2is, x10
    40002b88:	9100054a 	add	x10, x10, #0x1
    40002b8c:	9a88812b 	csel	x11, x9, x8, hi  // hi = pmore
    40002b90:	eb4b315f 	cmp	x10, x11, lsr #12
    40002b94:	54ffff61 	b.ne	40002b80 <one_time_init_mm+0x61c>  // b.any
    40002b98:	d5033b9f 	dsb	ish
    40002b9c:	d5033fdf 	isb
    40002ba0:	b00000e8 	adrp	x8, 4001f000 <cpus>
    40002ba4:	f9407d08 	ldr	x8, [x8, #248]
    40002ba8:	b00000e9 	adrp	x9, 4001f000 <cpus>
    40002bac:	f9407929 	ldr	x9, [x9, #240]
    40002bb0:	d2c01019 	mov	x25, #0x8000000000          	// #549755813888
    40002bb4:	913ffd08 	add	x8, x8, #0xfff
    40002bb8:	9274cd14 	and	x20, x8, #0xfffffffffffff000
    40002bbc:	eb19029f 	cmp	x20, x25
    40002bc0:	9a948328 	csel	x8, x25, x20, hi  // hi = pmore
    40002bc4:	92748d3a 	and	x26, x9, #0xfffffffff000
    40002bc8:	eb08035f 	cmp	x26, x8
    40002bcc:	54000942 	b.cs	40002cf4 <one_time_init_mm+0x790>  // b.hs, b.nlast
    40002bd0:	b00000e8 	adrp	x8, 4001f000 <cpus>
    40002bd4:	f9407908 	ldr	x8, [x8, #240]
    40002bd8:	f0000429 	adrp	x9, 40089000 <dlog_lock_enabled>
    40002bdc:	f9401129 	ldr	x9, [x9, #32]
    40002be0:	b00000fb 	adrp	x27, 4001f000 <cpus>
    40002be4:	d00000f3 	adrp	x19, 40020000 <arch_mm_config>
    40002be8:	9100e273 	add	x19, x19, #0x38
    40002bec:	f9407f7b 	ldr	x27, [x27, #248]
    40002bf0:	d35bbd18 	ubfx	x24, x8, #27, #21
    40002bf4:	92742308 	and	x8, x24, #0x1ff000
    40002bf8:	8b080136 	add	x22, x9, x8
    40002bfc:	aa1a03f7 	mov	x23, x26
    40002c00:	eb19029f 	cmp	x20, x25
    40002c04:	910012a3 	add	x3, x21, #0x4
    40002c08:	aa1703e0 	mov	x0, x23
    40002c0c:	9a948321 	csel	x1, x25, x20, hi  // hi = pmore
    40002c10:	aa1703e2 	mov	x2, x23
    40002c14:	aa1603e4 	mov	x4, x22
    40002c18:	52800045 	mov	w5, #0x2                   	// #2
    40002c1c:	52800086 	mov	w6, #0x4                   	// #4
    40002c20:	aa1303e7 	mov	x7, x19
    40002c24:	94003b01 	bl	40011828 <mm_map_level>
    40002c28:	360009e0 	tbz	w0, #0, 40002d64 <one_time_init_mm+0x800>
    40002c2c:	8b1902e8 	add	x8, x23, x25
    40002c30:	92596117 	and	x23, x8, #0xffffff8000000000
    40002c34:	913fff68 	add	x8, x27, #0xfff
    40002c38:	9274cd08 	and	x8, x8, #0xfffffffffffff000
    40002c3c:	eb19011f 	cmp	x8, x25
    40002c40:	9a888329 	csel	x9, x25, x8, hi  // hi = pmore
    40002c44:	914006d6 	add	x22, x22, #0x1, lsl #12
    40002c48:	eb0902ff 	cmp	x23, x9
    40002c4c:	54fffda3 	b.cc	40002c00 <one_time_init_mm+0x69c>  // b.lo, b.ul, b.last
    40002c50:	b00000e9 	adrp	x9, 4001f000 <cpus>
    40002c54:	f9407929 	ldr	x9, [x9, #240]
    40002c58:	d2c0101b 	mov	x27, #0x8000000000          	// #549755813888
    40002c5c:	eb1b011f 	cmp	x8, x27
    40002c60:	9a888368 	csel	x8, x27, x8, hi  // hi = pmore
    40002c64:	92748d36 	and	x22, x9, #0xfffffffff000
    40002c68:	eb0802df 	cmp	x22, x8
    40002c6c:	54000442 	b.cs	40002cf4 <one_time_init_mm+0x790>  // b.hs, b.nlast
    40002c70:	b00000e9 	adrp	x9, 4001f000 <cpus>
    40002c74:	f9407d29 	ldr	x9, [x9, #248]
    40002c78:	f000042a 	adrp	x10, 40089000 <dlog_lock_enabled>
    40002c7c:	f940114a 	ldr	x10, [x10, #32]
    40002c80:	92742308 	and	x8, x24, #0x1ff000
    40002c84:	528000b8 	mov	w24, #0x5                   	// #5
    40002c88:	8b080157 	add	x23, x10, x8
    40002c8c:	913ffd29 	add	x9, x9, #0xfff
    40002c90:	9274cd3c 	and	x28, x9, #0xfffffffffffff000
    40002c94:	d00000f3 	adrp	x19, 40020000 <arch_mm_config>
    40002c98:	9100e273 	add	x19, x19, #0x38
    40002c9c:	eb1b039f 	cmp	x28, x27
    40002ca0:	910012a3 	add	x3, x21, #0x4
    40002ca4:	aa1603e0 	mov	x0, x22
    40002ca8:	9a9c8361 	csel	x1, x27, x28, hi  // hi = pmore
    40002cac:	aa1603e2 	mov	x2, x22
    40002cb0:	aa1703e4 	mov	x4, x23
    40002cb4:	52800045 	mov	w5, #0x2                   	// #2
    40002cb8:	2a1803e6 	mov	w6, w24
    40002cbc:	aa1303e7 	mov	x7, x19
    40002cc0:	94003ada 	bl	40011828 <mm_map_level>
    40002cc4:	36001020 	tbz	w0, #0, 40002ec8 <one_time_init_mm+0x964>
    40002cc8:	8b1b02c8 	add	x8, x22, x27
    40002ccc:	92596116 	and	x22, x8, #0xffffff8000000000
    40002cd0:	b00000e8 	adrp	x8, 4001f000 <cpus>
    40002cd4:	f9407d08 	ldr	x8, [x8, #248]
    40002cd8:	913ffd08 	add	x8, x8, #0xfff
    40002cdc:	9274cd08 	and	x8, x8, #0xfffffffffffff000
    40002ce0:	eb1b011f 	cmp	x8, x27
    40002ce4:	9a888368 	csel	x8, x27, x8, hi  // hi = pmore
    40002ce8:	914006f7 	add	x23, x23, #0x1, lsl #12
    40002cec:	eb0802df 	cmp	x22, x8
    40002cf0:	54fffd63 	b.cc	40002c9c <one_time_init_mm+0x738>  // b.lo, b.ul, b.last
    40002cf4:	eb19029f 	cmp	x20, x25
    40002cf8:	9a948328 	csel	x8, x25, x20, hi  // hi = pmore
    40002cfc:	cb1a0108 	sub	x8, x8, x26
    40002d00:	f148011f 	cmp	x8, #0x200, lsl #12
    40002d04:	d5033a9f 	dsb	ishst
    40002d08:	54000069 	b.ls	40002d14 <one_time_init_mm+0x7b0>  // b.plast
    40002d0c:	d50c831f 	tlbi	alle2is
    40002d10:	14000013 	b	40002d5c <one_time_init_mm+0x7f8>
    40002d14:	b00000e8 	adrp	x8, 4001f000 <cpus>
    40002d18:	f9407d08 	ldr	x8, [x8, #248]
    40002d1c:	b00000ea 	adrp	x10, 4001f000 <cpus>
    40002d20:	f940794a 	ldr	x10, [x10, #240]
    40002d24:	d2c01009 	mov	x9, #0x8000000000          	// #549755813888
    40002d28:	913ffd08 	add	x8, x8, #0xfff
    40002d2c:	9274cd08 	and	x8, x8, #0xfffffffffffff000
    40002d30:	eb09011f 	cmp	x8, x9
    40002d34:	9a88812b 	csel	x11, x9, x8, hi  // hi = pmore
    40002d38:	d34cbd4a 	ubfx	x10, x10, #12, #36
    40002d3c:	eb4b315f 	cmp	x10, x11, lsr #12
    40002d40:	540000e2 	b.cs	40002d5c <one_time_init_mm+0x7f8>  // b.hs, b.nlast
    40002d44:	eb09011f 	cmp	x8, x9
    40002d48:	d50c832a 	tlbi	vae2is, x10
    40002d4c:	9100054a 	add	x10, x10, #0x1
    40002d50:	9a88812b 	csel	x11, x9, x8, hi  // hi = pmore
    40002d54:	eb4b315f 	cmp	x10, x11, lsr #12
    40002d58:	54ffff61 	b.ne	40002d44 <one_time_init_mm+0x7e0>  // b.any
    40002d5c:	d5033b9f 	dsb	ish
    40002d60:	d5033fdf 	isb
    40002d64:	d5380708 	mrs	x8, id_aa64mmfr0_el1
    40002d68:	f2640d1f 	tst	x8, #0xf0000000
    40002d6c:	d5380416 	mrs	x22, id_aa64pfr0_el1
    40002d70:	54000bc1 	b.ne	40002ee8 <one_time_init_mm+0x984>  // b.any
    40002d74:	b00000c9 	adrp	x9, 4001b000 <rodata_begin>
    40002d78:	91166129 	add	x9, x9, #0x598
    40002d7c:	92400d13 	and	x19, x8, #0xf
    40002d80:	b8b37934 	ldrsw	x20, [x9, x19, lsl #2]
    40002d84:	34000b94 	cbz	w20, 40002ef4 <one_time_init_mm+0x990>
    40002d88:	f0000428 	adrp	x8, 40089000 <dlog_lock_enabled>
    40002d8c:	f9401115 	ldr	x21, [x8, #32]
    40002d90:	d00000c0 	adrp	x0, 4001c000 <arch_mm_init.pa_bits_table+0xa68>
    40002d94:	9138a800 	add	x0, x0, #0xe2a
    40002d98:	2a1403e1 	mov	w1, w20
    40002d9c:	94002bd1 	bl	4000dce0 <dlog>
    40002da0:	7100ae9f 	cmp	w20, #0x2b
    40002da4:	540000ad 	b.le	40002db8 <one_time_init_mm+0x854>
    40002da8:	52801017 	mov	w23, #0x80                  	// #128
    40002dac:	52800081 	mov	w1, #0x4                   	// #4
    40002db0:	52800068 	mov	w8, #0x3                   	// #3
    40002db4:	14000008 	b	40002dd4 <one_time_init_mm+0x870>
    40002db8:	71008a9f 	cmp	w20, #0x22
    40002dbc:	1a9fd7e9 	cset	w9, gt
    40002dc0:	52800028 	mov	w8, #0x1                   	// #1
    40002dc4:	5280004a 	mov	w10, #0x2                   	// #2
    40002dc8:	1a88d508 	cinc	w8, w8, gt
    40002dcc:	1a8ad541 	cinc	w1, w10, gt
    40002dd0:	531a6537 	lsl	w23, w9, #6
    40002dd4:	f0000429 	adrp	x9, 40089000 <dlog_lock_enabled>
    40002dd8:	39004128 	strb	w8, [x9, #16]
    40002ddc:	51003288 	sub	w8, w20, #0xc
    40002de0:	5291c729 	mov	w9, #0x8e39                	// #36409
    40002de4:	72a71c69 	movk	w9, #0x38e3, lsl #16
    40002de8:	9b297d09 	smull	x9, w8, w9
    40002dec:	d360fd2a 	lsr	x10, x9, #32
    40002df0:	d37ffd29 	lsr	x9, x9, #63
    40002df4:	0b8a0529 	add	w9, w9, w10, asr #1
    40002df8:	0b090d29 	add	w9, w9, w9, lsl #3
    40002dfc:	4b090108 	sub	w8, w8, w9
    40002e00:	52800029 	mov	w9, #0x1                   	// #1
    40002e04:	1ac82129 	lsl	w9, w9, w8
    40002e08:	7100111f 	cmp	w8, #0x4
    40002e0c:	1a9fd528 	csinc	w8, w9, wzr, le
    40002e10:	f0000429 	adrp	x9, 40089000 <dlog_lock_enabled>
    40002e14:	12001d02 	and	w2, w8, #0xff
    40002e18:	f00000c0 	adrp	x0, 4001d000 <arch_mm_init.pa_bits_table+0x1a68>
    40002e1c:	91065000 	add	x0, x0, #0x194
    40002e20:	39005128 	strb	w8, [x9, #20]
    40002e24:	94002baf 	bl	4000dce0 <dlog>
    40002e28:	925c0ec8 	and	x8, x22, #0xf000000000
    40002e2c:	d2c00209 	mov	x9, #0x1000000000          	// #68719476736
    40002e30:	eb09011f 	cmp	x8, x9
    40002e34:	52b00008 	mov	w8, #0x80000000            	// #-2147483648
    40002e38:	52b80009 	mov	w9, #0xc0000000            	// #-1073741824
    40002e3c:	9a880128 	csel	x8, x9, x8, eq  // eq = none
    40002e40:	b3700e68 	bfi	x8, x19, #16, #4
    40002e44:	52800809 	mov	w9, #0x40                  	// #64
    40002e48:	cb140129 	sub	x9, x9, x20
    40002e4c:	b00000eb 	adrp	x11, 4001f000 <cpus>
    40002e50:	f940816b 	ldr	x11, [x11, #256]
    40002e54:	5286a00a 	mov	w10, #0x3500                	// #13568
    40002e58:	aa090108 	orr	x8, x8, x9
    40002e5c:	2a170129 	orr	w9, w9, w23
    40002e60:	aa170108 	orr	x8, x8, x23
    40002e64:	aa0a0108 	orr	x8, x8, x10
    40002e68:	5286a32a 	mov	w10, #0x3519                	// #13593
    40002e6c:	72a0020a 	movk	w10, #0x10, lsl #16
    40002e70:	b3700e6a 	bfi	x10, x19, #16, #4
    40002e74:	a9002175 	stp	x21, x8, [x11]
    40002e78:	529fe008 	mov	w8, #0xff00                	// #65280
    40002e7c:	32010129 	orr	w9, w9, #0x80000000
    40002e80:	a9012968 	stp	x8, x10, [x11, #16]
    40002e84:	528307e8 	mov	w8, #0x183f                	// #6207
    40002e88:	72a20da8 	movk	w8, #0x106d, lsl #16
    40002e8c:	a9022568 	stp	x8, x9, [x11, #32]
    40002e90:	b00000e9 	adrp	x9, 4001f000 <cpus>
    40002e94:	f9400fe8 	ldr	x8, [sp, #24]
    40002e98:	f9406529 	ldr	x9, [x9, #200]
    40002e9c:	eb08013f 	cmp	x9, x8
    40002ea0:	54000121 	b.ne	40002ec4 <one_time_init_mm+0x960>  // b.any
    40002ea4:	a9477bfd 	ldp	x29, x30, [sp, #112]
    40002ea8:	a9464ff4 	ldp	x20, x19, [sp, #96]
    40002eac:	a94557f6 	ldp	x22, x21, [sp, #80]
    40002eb0:	a9445ff8 	ldp	x24, x23, [sp, #64]
    40002eb4:	a94367fa 	ldp	x26, x25, [sp, #48]
    40002eb8:	a9426ffc 	ldp	x28, x27, [sp, #32]
    40002ebc:	910203ff 	add	sp, sp, #0x80
    40002ec0:	d65f03c0 	ret
    40002ec4:	94002c8a 	bl	4000e0ec <__stack_chk_fail>
    40002ec8:	b00000c0 	adrp	x0, 4001b000 <rodata_begin>
    40002ecc:	9133e000 	add	x0, x0, #0xcf8
    40002ed0:	d00000c1 	adrp	x1, 4001c000 <arch_mm_init.pa_bits_table+0xa68>
    40002ed4:	91172021 	add	x1, x1, #0x5c8
    40002ed8:	b00000c2 	adrp	x2, 4001b000 <rodata_begin>
    40002edc:	91376c42 	add	x2, x2, #0xddb
    40002ee0:	52804103 	mov	w3, #0x208                 	// #520
    40002ee4:	94003d3d 	bl	400123d8 <panic>
    40002ee8:	d00000c0 	adrp	x0, 4001c000 <arch_mm_init.pa_bits_table+0xa68>
    40002eec:	91343000 	add	x0, x0, #0xd0c
    40002ef0:	17fffe20 	b	40002770 <one_time_init_mm+0x20c>
    40002ef4:	d00000c0 	adrp	x0, 4001c000 <arch_mm_init.pa_bits_table+0xa68>
    40002ef8:	9124e800 	add	x0, x0, #0x93a
    40002efc:	aa1303e1 	mov	x1, x19
    40002f00:	94002b78 	bl	4000dce0 <dlog>
    40002f04:	17fffe1c 	b	40002774 <one_time_init_mm+0x210>

0000000040002f08 <one_time_init>:
    40002f08:	a9ba6ffc 	stp	x28, x27, [sp, #-96]!
    40002f0c:	a90167fa 	stp	x26, x25, [sp, #16]
    40002f10:	a9025ff8 	stp	x24, x23, [sp, #32]
    40002f14:	a90357f6 	stp	x22, x21, [sp, #48]
    40002f18:	a9044ff4 	stp	x20, x19, [sp, #64]
    40002f1c:	a9057bfd 	stp	x29, x30, [sp, #80]
    40002f20:	910143fd 	add	x29, sp, #0x50
    40002f24:	d1401bff 	sub	sp, sp, #0x6, lsl #12
    40002f28:	d12583ff 	sub	sp, sp, #0x960
    40002f2c:	b00000e9 	adrp	x9, 4001f000 <cpus>
    40002f30:	f9406529 	ldr	x9, [x9, #200]
    40002f34:	900000e8 	adrp	x8, 4001e000 <arch_mm_init.pa_bits_table+0x2a68>
    40002f38:	91027108 	add	x8, x8, #0x9c
    40002f3c:	aa0803e0 	mov	x0, x8
    40002f40:	f81a03a9 	stur	x9, [x29, #-96]
    40002f44:	39400d09 	ldrb	w9, [x8, #3]
    40002f48:	3940090a 	ldrb	w10, [x8, #2]
    40002f4c:	b3781d2a 	bfi	x10, x9, #8, #8
    40002f50:	3940050b 	ldrb	w11, [x8, #1]
    40002f54:	39400109 	ldrb	w9, [x8]
    40002f58:	b3781d69 	bfi	x9, x11, #8, #8
    40002f5c:	aa0803eb 	mov	x11, x8
    40002f60:	b3703d49 	bfi	x9, x10, #16, #16
    40002f64:	3940150a 	ldrb	w10, [x8, #5]
    40002f68:	3940250c 	ldrb	w12, [x8, #9]
    40002f6c:	3940350d 	ldrb	w13, [x8, #13]
    40002f70:	3940450e 	ldrb	w14, [x8, #17]
    40002f74:	39405510 	ldrb	w16, [x8, #21]
    40002f78:	39406511 	ldrb	w17, [x8, #25]
    40002f7c:	aa0803ef 	mov	x15, x8
    40002f80:	38404c13 	ldrb	w19, [x0, #4]!
    40002f84:	39400c14 	ldrb	w20, [x0, #3]
    40002f88:	39400800 	ldrb	w0, [x0, #2]
    40002f8c:	33181e80 	bfi	w0, w20, #8, #8
    40002f90:	33181d53 	bfi	w19, w10, #8, #8
    40002f94:	33103c13 	bfi	w19, w0, #16, #16
    40002f98:	52b08000 	mov	w0, #0x84000000            	// #-2080374784
    40002f9c:	b3607e69 	bfi	x9, x19, #32, #32
    40002fa0:	d0000593 	adrp	x19, 400b4000 <other_world+0x1bd0>
    40002fa4:	f933cbe9 	str	x9, [sp, #26512]
    40002fa8:	aa0803f2 	mov	x18, x8
    40002fac:	38408d69 	ldrb	w9, [x11, #8]!
    40002fb0:	b3781d89 	bfi	x9, x12, #8, #8
    40002fb4:	39400d6a 	ldrb	w10, [x11, #3]
    40002fb8:	3940096c 	ldrb	w12, [x11, #2]
    40002fbc:	b3781d4c 	bfi	x12, x10, #8, #8
    40002fc0:	38404d6a 	ldrb	w10, [x11, #4]!
    40002fc4:	33181daa 	bfi	w10, w13, #8, #8
    40002fc8:	b3703d89 	bfi	x9, x12, #16, #16
    40002fcc:	39400d6c 	ldrb	w12, [x11, #3]
    40002fd0:	3940096b 	ldrb	w11, [x11, #2]
    40002fd4:	33181d8b 	bfi	w11, w12, #8, #8
    40002fd8:	33103d6a 	bfi	w10, w11, #16, #16
    40002fdc:	b3607d49 	bfi	x9, x10, #32, #32
    40002fe0:	f933cfe9 	str	x9, [sp, #26520]
    40002fe4:	38410de9 	ldrb	w9, [x15, #16]!
    40002fe8:	39407508 	ldrb	w8, [x8, #29]
    40002fec:	b3781dc9 	bfi	x9, x14, #8, #8
    40002ff0:	39400dea 	ldrb	w10, [x15, #3]
    40002ff4:	394009eb 	ldrb	w11, [x15, #2]
    40002ff8:	b3781d4b 	bfi	x11, x10, #8, #8
    40002ffc:	b3703d69 	bfi	x9, x11, #16, #16
    40003000:	38404dea 	ldrb	w10, [x15, #4]!
    40003004:	39400deb 	ldrb	w11, [x15, #3]
    40003008:	394009ec 	ldrb	w12, [x15, #2]
    4000300c:	33181d6c 	bfi	w12, w11, #8, #8
    40003010:	33181e0a 	bfi	w10, w16, #8, #8
    40003014:	33103d8a 	bfi	w10, w12, #16, #16
    40003018:	b3607d49 	bfi	x9, x10, #32, #32
    4000301c:	f933d3e9 	str	x9, [sp, #26528]
    40003020:	38418e49 	ldrb	w9, [x18, #24]!
    40003024:	b3781e29 	bfi	x9, x17, #8, #8
    40003028:	39400e4a 	ldrb	w10, [x18, #3]
    4000302c:	39400a4b 	ldrb	w11, [x18, #2]
    40003030:	b3781d4b 	bfi	x11, x10, #8, #8
    40003034:	38404e4a 	ldrb	w10, [x18, #4]!
    40003038:	33181d0a 	bfi	w10, w8, #8, #8
    4000303c:	b3703d69 	bfi	x9, x11, #16, #16
    40003040:	39400e4b 	ldrb	w11, [x18, #3]
    40003044:	39400a4c 	ldrb	w12, [x18, #2]
    40003048:	33181d6c 	bfi	w12, w11, #8, #8
    4000304c:	33103d8a 	bfi	w10, w12, #16, #16
    40003050:	b3607d49 	bfi	x9, x10, #32, #32
    40003054:	aa1f03e1 	mov	x1, xzr
    40003058:	aa1f03e2 	mov	x2, xzr
    4000305c:	aa1f03e3 	mov	x3, xzr
    40003060:	aa1f03e4 	mov	x4, xzr
    40003064:	aa1f03e5 	mov	x5, xzr
    40003068:	aa1f03e6 	mov	x6, xzr
    4000306c:	aa1f03e7 	mov	x7, xzr
    40003070:	f933d7e9 	str	x9, [sp, #26536]
    40003074:	d4000003 	smc	#0x0
    40003078:	aa0003e1 	mov	x1, x0
    4000307c:	51404028 	sub	w8, w1, #0x10, lsl #12
    40003080:	7100091f 	cmp	w8, #0x2
    40003084:	b90d8261 	str	w1, [x19, #3456]
    40003088:	54000063 	b.cc	40003094 <one_time_init+0x18c>  // b.lo, b.ul, b.last
    4000308c:	7100083f 	cmp	w1, #0x2
    40003090:	540000a1 	b.ne	400030a4 <one_time_init+0x19c>  // b.any
    40003094:	b00000c0 	adrp	x0, 4001c000 <arch_mm_init.pa_bits_table+0xa68>
    40003098:	912b6800 	add	x0, x0, #0xada
    4000309c:	94002b11 	bl	4000dce0 <dlog>
    400030a0:	14000005 	b	400030b4 <one_time_init+0x1ac>
    400030a4:	b00000c0 	adrp	x0, 4001c000 <arch_mm_init.pa_bits_table+0xa68>
    400030a8:	912ad800 	add	x0, x0, #0xab6
    400030ac:	94002b0d 	bl	4000dce0 <dlog>
    400030b0:	b90d827f 	str	wzr, [x19, #3456]
    400030b4:	d0000428 	adrp	x8, 40089000 <dlog_lock_enabled>
    400030b8:	52800029 	mov	w9, #0x1                   	// #1
    400030bc:	39000109 	strb	w9, [x8]
    400030c0:	d0000428 	adrp	x8, 40089000 <dlog_lock_enabled>
    400030c4:	3900a109 	strb	w9, [x8, #40]
    400030c8:	d0000428 	adrp	x8, 40089000 <dlog_lock_enabled>
    400030cc:	91006108 	add	x8, x8, #0x18
    400030d0:	5280002a 	mov	w10, #0x1                   	// #1
    400030d4:	d50320bf 	sevl
    400030d8:	d503205f 	wfe
    400030dc:	885ffd09 	ldaxr	w9, [x8]
    400030e0:	35ffffc9 	cbnz	w9, 400030d8 <one_time_init+0x1d0>
    400030e4:	88097d0a 	stxr	w9, w10, [x8]
    400030e8:	35ffffa9 	cbnz	w9, 400030dc <one_time_init+0x1d4>
    400030ec:	900000e8 	adrp	x8, 4001f000 <cpus>
    400030f0:	f9408508 	ldr	x8, [x8, #264]
    400030f4:	f940010a 	ldr	x10, [x8]
    400030f8:	528204e8 	mov	w8, #0x1027                	// #4135
    400030fc:	8b080148 	add	x8, x10, x8
    40003100:	9274cd09 	and	x9, x8, #0xfffffffffffff000
    40003104:	d367fd08 	lsr	x8, x8, #39
    40003108:	f100011f 	cmp	x8, #0x0
    4000310c:	d2c01019 	mov	x25, #0x8000000000          	// #549755813888
    40003110:	d280d09b 	mov	x27, #0x684                 	// #1668
    40003114:	92748d55 	and	x21, x10, #0xfffffffff000
    40003118:	f2e0081b 	movk	x27, #0x40, lsl #48
    4000311c:	d000043a 	adrp	x26, 40089000 <dlog_lock_enabled>
    40003120:	d367bd48 	ubfx	x8, x10, #39, #9
    40003124:	9a990136 	csel	x22, x9, x25, eq  // eq = none
    40003128:	eb1502dc 	subs	x28, x22, x21
    4000312c:	a909a3ea 	stp	x10, x8, [sp, #152]
    40003130:	540005e9 	b.ls	400031ec <one_time_init+0x2e4>  // b.plast
    40003134:	f9401348 	ldr	x8, [x26, #32]
    40003138:	b00000f3 	adrp	x19, 40020000 <arch_mm_config>
    4000313c:	9100e273 	add	x19, x19, #0x38
    40003140:	f94053e9 	ldr	x9, [sp, #160]
    40003144:	8b093117 	add	x23, x8, x9, lsl #12
    40003148:	aa1503f8 	mov	x24, x21
    4000314c:	91000763 	add	x3, x27, #0x1
    40003150:	aa1803e0 	mov	x0, x24
    40003154:	aa1603e1 	mov	x1, x22
    40003158:	aa1803e2 	mov	x2, x24
    4000315c:	aa1703e4 	mov	x4, x23
    40003160:	52800045 	mov	w5, #0x2                   	// #2
    40003164:	52800086 	mov	w6, #0x4                   	// #4
    40003168:	aa1303e7 	mov	x7, x19
    4000316c:	940039af 	bl	40011828 <mm_map_level>
    40003170:	3601de80 	tbz	w0, #0, 40006d40 <one_time_init+0x3e38>
    40003174:	8b190308 	add	x8, x24, x25
    40003178:	92596118 	and	x24, x8, #0xffffff8000000000
    4000317c:	914006f7 	add	x23, x23, #0x1, lsl #12
    40003180:	eb16031f 	cmp	x24, x22
    40003184:	54fffe43 	b.cc	4000314c <one_time_init+0x244>  // b.lo, b.ul, b.last
    40003188:	eb1502df 	cmp	x22, x21
    4000318c:	54000309 	b.ls	400031ec <one_time_init+0x2e4>  // b.plast
    40003190:	f9401348 	ldr	x8, [x26, #32]
    40003194:	b00000f7 	adrp	x23, 40020000 <arch_mm_config>
    40003198:	9100e2f7 	add	x23, x23, #0x38
    4000319c:	f94053e9 	ldr	x9, [sp, #160]
    400031a0:	8b093118 	add	x24, x8, x9, lsl #12
    400031a4:	528000b3 	mov	w19, #0x5                   	// #5
    400031a8:	d2c01014 	mov	x20, #0x8000000000          	// #549755813888
    400031ac:	aa1503f9 	mov	x25, x21
    400031b0:	91000763 	add	x3, x27, #0x1
    400031b4:	aa1903e0 	mov	x0, x25
    400031b8:	aa1603e1 	mov	x1, x22
    400031bc:	aa1903e2 	mov	x2, x25
    400031c0:	aa1803e4 	mov	x4, x24
    400031c4:	52800045 	mov	w5, #0x2                   	// #2
    400031c8:	2a1303e6 	mov	w6, w19
    400031cc:	aa1703e7 	mov	x7, x23
    400031d0:	94003996 	bl	40011828 <mm_map_level>
    400031d4:	3601da60 	tbz	w0, #0, 40006d20 <one_time_init+0x3e18>
    400031d8:	8b140328 	add	x8, x25, x20
    400031dc:	92596119 	and	x25, x8, #0xffffff8000000000
    400031e0:	91400718 	add	x24, x24, #0x1, lsl #12
    400031e4:	eb16033f 	cmp	x25, x22
    400031e8:	54fffe43 	b.cc	400031b0 <one_time_init+0x2a8>  // b.lo, b.ul, b.last
    400031ec:	f9004bfc 	str	x28, [sp, #144]
    400031f0:	f148039f 	cmp	x28, #0x200, lsl #12
    400031f4:	d34cfebc 	lsr	x28, x21, #12
    400031f8:	d34cfed8 	lsr	x24, x22, #12
    400031fc:	d5033a9f 	dsb	ishst
    40003200:	54000089 	b.ls	40003210 <one_time_init+0x308>  // b.plast
    40003204:	d50c831f 	tlbi	alle2is
    40003208:	f9404ff3 	ldr	x19, [sp, #152]
    4000320c:	14000009 	b	40003230 <one_time_init+0x328>
    40003210:	f9404ff3 	ldr	x19, [sp, #152]
    40003214:	eb56339f 	cmp	x28, x22, lsr #12
    40003218:	540000c2 	b.cs	40003230 <one_time_init+0x328>  // b.hs, b.nlast
    4000321c:	aa1c03e8 	mov	x8, x28
    40003220:	d50c8328 	tlbi	vae2is, x8
    40003224:	91000508 	add	x8, x8, #0x1
    40003228:	eb08031f 	cmp	x24, x8
    4000322c:	54ffffa1 	b.ne	40003220 <one_time_init+0x318>  // b.any
    40003230:	d5033b9f 	dsb	ish
    40003234:	d5033fdf 	isb
    40003238:	b401d853 	cbz	x19, 40006d40 <one_time_init+0x3e38>
    4000323c:	aa1303e0 	mov	x0, x19
    40003240:	94002e31 	bl	4000eb04 <fdt_check_header>
    40003244:	34000840 	cbz	w0, 4000334c <one_time_init+0x444>
    40003248:	d00000c0 	adrp	x0, 4001d000 <arch_mm_init.pa_bits_table+0x1a68>
    4000324c:	910b9000 	add	x0, x0, #0x2e4
    40003250:	94002aa4 	bl	4000dce0 <dlog>
    40003254:	eb1502df 	cmp	x22, x21
    40003258:	540005c9 	b.ls	40003310 <one_time_init+0x408>  // b.plast
    4000325c:	f9401348 	ldr	x8, [x26, #32]
    40003260:	b00000f3 	adrp	x19, 40020000 <arch_mm_config>
    40003264:	9100e273 	add	x19, x19, #0x38
    40003268:	f94053e9 	ldr	x9, [sp, #160]
    4000326c:	8b093114 	add	x20, x8, x9, lsl #12
    40003270:	d2c01019 	mov	x25, #0x8000000000          	// #549755813888
    40003274:	aa1503f7 	mov	x23, x21
    40003278:	aa1703e0 	mov	x0, x23
    4000327c:	aa1603e1 	mov	x1, x22
    40003280:	aa1703e2 	mov	x2, x23
    40003284:	aa1b03e3 	mov	x3, x27
    40003288:	aa1403e4 	mov	x4, x20
    4000328c:	52800045 	mov	w5, #0x2                   	// #2
    40003290:	528000c6 	mov	w6, #0x6                   	// #6
    40003294:	aa1303e7 	mov	x7, x19
    40003298:	94003964 	bl	40011828 <mm_map_level>
    4000329c:	36000520 	tbz	w0, #0, 40003340 <one_time_init+0x438>
    400032a0:	8b1902e8 	add	x8, x23, x25
    400032a4:	92596117 	and	x23, x8, #0xffffff8000000000
    400032a8:	91400694 	add	x20, x20, #0x1, lsl #12
    400032ac:	eb1602ff 	cmp	x23, x22
    400032b0:	54fffe43 	b.cc	40003278 <one_time_init+0x370>  // b.lo, b.ul, b.last
    400032b4:	eb1502df 	cmp	x22, x21
    400032b8:	540002c9 	b.ls	40003310 <one_time_init+0x408>  // b.plast
    400032bc:	f9401348 	ldr	x8, [x26, #32]
    400032c0:	b00000f3 	adrp	x19, 40020000 <arch_mm_config>
    400032c4:	9100e273 	add	x19, x19, #0x38
    400032c8:	f94053e9 	ldr	x9, [sp, #160]
    400032cc:	8b093114 	add	x20, x8, x9, lsl #12
    400032d0:	d2c01017 	mov	x23, #0x8000000000          	// #549755813888
    400032d4:	aa1503e0 	mov	x0, x21
    400032d8:	aa1603e1 	mov	x1, x22
    400032dc:	aa1503e2 	mov	x2, x21
    400032e0:	aa1b03e3 	mov	x3, x27
    400032e4:	aa1403e4 	mov	x4, x20
    400032e8:	52800045 	mov	w5, #0x2                   	// #2
    400032ec:	528000e6 	mov	w6, #0x7                   	// #7
    400032f0:	aa1303e7 	mov	x7, x19
    400032f4:	9400394d 	bl	40011828 <mm_map_level>
    400032f8:	3601d140 	tbz	w0, #0, 40006d20 <one_time_init+0x3e18>
    400032fc:	8b1702a8 	add	x8, x21, x23
    40003300:	92596115 	and	x21, x8, #0xffffff8000000000
    40003304:	91400694 	add	x20, x20, #0x1, lsl #12
    40003308:	eb1602bf 	cmp	x21, x22
    4000330c:	54fffe43 	b.cc	400032d4 <one_time_init+0x3cc>  // b.lo, b.ul, b.last
    40003310:	d5033a9f 	dsb	ishst
    40003314:	f9404be8 	ldr	x8, [sp, #144]
    40003318:	f148011f 	cmp	x8, #0x200, lsl #12
    4000331c:	5401d888 	b.hi	40006e2c <one_time_init+0x3f24>  // b.pmore
    40003320:	eb56339f 	cmp	x28, x22, lsr #12
    40003324:	540000a2 	b.cs	40003338 <one_time_init+0x430>  // b.hs, b.nlast
    40003328:	d50c833c 	tlbi	vae2is, x28
    4000332c:	9100079c 	add	x28, x28, #0x1
    40003330:	eb1c031f 	cmp	x24, x28
    40003334:	54ffffa1 	b.ne	40003328 <one_time_init+0x420>  // b.any
    40003338:	d5033b9f 	dsb	ish
    4000333c:	d5033fdf 	isb
    40003340:	b00000c0 	adrp	x0, 4001c000 <arch_mm_init.pa_bits_table+0xa68>
    40003344:	910f7800 	add	x0, x0, #0x3de
    40003348:	94003c24 	bl	400123d8 <panic>
    4000334c:	39401268 	ldrb	w8, [x19, #4]
    40003350:	d3689d08 	lsl	x8, x8, #24
    40003354:	39401669 	ldrb	w9, [x19, #5]
    40003358:	b3701d28 	bfi	x8, x9, #16, #8
    4000335c:	39401a69 	ldrb	w9, [x19, #6]
    40003360:	b3781d28 	bfi	x8, x9, #8, #8
    40003364:	39401e69 	ldrb	w9, [x19, #7]
    40003368:	aa090108 	orr	x8, x8, x9
    4000336c:	f90043e8 	str	x8, [sp, #128]
    40003370:	8b130108 	add	x8, x8, x19
    40003374:	913ffd08 	add	x8, x8, #0xfff
    40003378:	9274cd09 	and	x9, x8, #0xfffffffffffff000
    4000337c:	d367fd08 	lsr	x8, x8, #39
    40003380:	f100011f 	cmp	x8, #0x0
    40003384:	d2c01014 	mov	x20, #0x8000000000          	// #549755813888
    40003388:	9a940137 	csel	x23, x9, x20, eq  // eq = none
    4000338c:	eb1502e8 	subs	x8, x23, x21
    40003390:	f90047e8 	str	x8, [sp, #136]
    40003394:	54000669 	b.ls	40003460 <one_time_init+0x558>  // b.plast
    40003398:	d0000428 	adrp	x8, 40089000 <dlog_lock_enabled>
    4000339c:	f9401108 	ldr	x8, [x8, #32]
    400033a0:	f94053e9 	ldr	x9, [sp, #160]
    400033a4:	8b09311a 	add	x26, x8, x9, lsl #12
    400033a8:	aa1b03f9 	mov	x25, x27
    400033ac:	b00000f3 	adrp	x19, 40020000 <arch_mm_config>
    400033b0:	9100e273 	add	x19, x19, #0x38
    400033b4:	aa1503fb 	mov	x27, x21
    400033b8:	91000723 	add	x3, x25, #0x1
    400033bc:	aa1b03e0 	mov	x0, x27
    400033c0:	aa1703e1 	mov	x1, x23
    400033c4:	aa1b03e2 	mov	x2, x27
    400033c8:	aa1a03e4 	mov	x4, x26
    400033cc:	52800045 	mov	w5, #0x2                   	// #2
    400033d0:	52800086 	mov	w6, #0x4                   	// #4
    400033d4:	aa1303e7 	mov	x7, x19
    400033d8:	94003914 	bl	40011828 <mm_map_level>
    400033dc:	36004f60 	tbz	w0, #0, 40003dc8 <one_time_init+0xec0>
    400033e0:	8b140368 	add	x8, x27, x20
    400033e4:	9259611b 	and	x27, x8, #0xffffff8000000000
    400033e8:	9140075a 	add	x26, x26, #0x1, lsl #12
    400033ec:	eb17037f 	cmp	x27, x23
    400033f0:	54fffe43 	b.cc	400033b8 <one_time_init+0x4b0>  // b.lo, b.ul, b.last
    400033f4:	eb1502ff 	cmp	x23, x21
    400033f8:	aa1903fb 	mov	x27, x25
    400033fc:	54000329 	b.ls	40003460 <one_time_init+0x558>  // b.plast
    40003400:	d0000428 	adrp	x8, 40089000 <dlog_lock_enabled>
    40003404:	f9401108 	ldr	x8, [x8, #32]
    40003408:	f94053e9 	ldr	x9, [sp, #160]
    4000340c:	8b093119 	add	x25, x8, x9, lsl #12
    40003410:	b00000f6 	adrp	x22, 40020000 <arch_mm_config>
    40003414:	9100e2d6 	add	x22, x22, #0x38
    40003418:	528000b3 	mov	w19, #0x5                   	// #5
    4000341c:	d2c01014 	mov	x20, #0x8000000000          	// #549755813888
    40003420:	aa1503fa 	mov	x26, x21
    40003424:	91000763 	add	x3, x27, #0x1
    40003428:	aa1a03e0 	mov	x0, x26
    4000342c:	aa1703e1 	mov	x1, x23
    40003430:	aa1a03e2 	mov	x2, x26
    40003434:	aa1903e4 	mov	x4, x25
    40003438:	52800045 	mov	w5, #0x2                   	// #2
    4000343c:	2a1303e6 	mov	w6, w19
    40003440:	aa1603e7 	mov	x7, x22
    40003444:	940038f9 	bl	40011828 <mm_map_level>
    40003448:	3601c6c0 	tbz	w0, #0, 40006d20 <one_time_init+0x3e18>
    4000344c:	8b140348 	add	x8, x26, x20
    40003450:	9259611a 	and	x26, x8, #0xffffff8000000000
    40003454:	91400739 	add	x25, x25, #0x1, lsl #12
    40003458:	eb17035f 	cmp	x26, x23
    4000345c:	54fffe43 	b.cc	40003424 <one_time_init+0x51c>  // b.lo, b.ul, b.last
    40003460:	d5033a9f 	dsb	ishst
    40003464:	f94047e8 	ldr	x8, [sp, #136]
    40003468:	f148011f 	cmp	x8, #0x200, lsl #12
    4000346c:	d34cfef8 	lsr	x24, x23, #12
    40003470:	540000c9 	b.ls	40003488 <one_time_init+0x580>  // b.plast
    40003474:	d50c831f 	tlbi	alle2is
    40003478:	f9404ff3 	ldr	x19, [sp, #152]
    4000347c:	d000043a 	adrp	x26, 40089000 <dlog_lock_enabled>
    40003480:	f94043f4 	ldr	x20, [sp, #128]
    40003484:	1400000b 	b	400034b0 <one_time_init+0x5a8>
    40003488:	f9404ff3 	ldr	x19, [sp, #152]
    4000348c:	eb57339f 	cmp	x28, x23, lsr #12
    40003490:	d000043a 	adrp	x26, 40089000 <dlog_lock_enabled>
    40003494:	f94043f4 	ldr	x20, [sp, #128]
    40003498:	540000c2 	b.cs	400034b0 <one_time_init+0x5a8>  // b.hs, b.nlast
    4000349c:	aa1c03e8 	mov	x8, x28
    400034a0:	d50c8328 	tlbi	vae2is, x8
    400034a4:	91000508 	add	x8, x8, #0x1
    400034a8:	eb08031f 	cmp	x24, x8
    400034ac:	54ffffa1 	b.ne	400034a0 <one_time_init+0x598>  // b.any
    400034b0:	aa1303e0 	mov	x0, x19
    400034b4:	aa1403e1 	mov	x1, x20
    400034b8:	d5033b9f 	dsb	ish
    400034bc:	d5033fdf 	isb
    400034c0:	9400321c 	bl	4000fd30 <fdt_check_full>
    400034c4:	34000840 	cbz	w0, 400035cc <one_time_init+0x6c4>
    400034c8:	d00000c0 	adrp	x0, 4001d000 <arch_mm_init.pa_bits_table+0x1a68>
    400034cc:	910c2800 	add	x0, x0, #0x30a
    400034d0:	94002a04 	bl	4000dce0 <dlog>
    400034d4:	eb1502ff 	cmp	x23, x21
    400034d8:	540005c9 	b.ls	40003590 <one_time_init+0x688>  // b.plast
    400034dc:	f9401348 	ldr	x8, [x26, #32]
    400034e0:	b00000f3 	adrp	x19, 40020000 <arch_mm_config>
    400034e4:	9100e273 	add	x19, x19, #0x38
    400034e8:	f94053e9 	ldr	x9, [sp, #160]
    400034ec:	8b093114 	add	x20, x8, x9, lsl #12
    400034f0:	d2c01019 	mov	x25, #0x8000000000          	// #549755813888
    400034f4:	aa1503f6 	mov	x22, x21
    400034f8:	aa1603e0 	mov	x0, x22
    400034fc:	aa1703e1 	mov	x1, x23
    40003500:	aa1603e2 	mov	x2, x22
    40003504:	aa1b03e3 	mov	x3, x27
    40003508:	aa1403e4 	mov	x4, x20
    4000350c:	52800045 	mov	w5, #0x2                   	// #2
    40003510:	528000c6 	mov	w6, #0x6                   	// #6
    40003514:	aa1303e7 	mov	x7, x19
    40003518:	940038c4 	bl	40011828 <mm_map_level>
    4000351c:	3607f120 	tbz	w0, #0, 40003340 <one_time_init+0x438>
    40003520:	8b1902c8 	add	x8, x22, x25
    40003524:	92596116 	and	x22, x8, #0xffffff8000000000
    40003528:	91400694 	add	x20, x20, #0x1, lsl #12
    4000352c:	eb1702df 	cmp	x22, x23
    40003530:	54fffe43 	b.cc	400034f8 <one_time_init+0x5f0>  // b.lo, b.ul, b.last
    40003534:	eb1502ff 	cmp	x23, x21
    40003538:	540002c9 	b.ls	40003590 <one_time_init+0x688>  // b.plast
    4000353c:	f9401348 	ldr	x8, [x26, #32]
    40003540:	b00000f3 	adrp	x19, 40020000 <arch_mm_config>
    40003544:	9100e273 	add	x19, x19, #0x38
    40003548:	f94053e9 	ldr	x9, [sp, #160]
    4000354c:	8b093114 	add	x20, x8, x9, lsl #12
    40003550:	d2c01016 	mov	x22, #0x8000000000          	// #549755813888
    40003554:	aa1503e0 	mov	x0, x21
    40003558:	aa1703e1 	mov	x1, x23
    4000355c:	aa1503e2 	mov	x2, x21
    40003560:	aa1b03e3 	mov	x3, x27
    40003564:	aa1403e4 	mov	x4, x20
    40003568:	52800045 	mov	w5, #0x2                   	// #2
    4000356c:	528000e6 	mov	w6, #0x7                   	// #7
    40003570:	aa1303e7 	mov	x7, x19
    40003574:	940038ad 	bl	40011828 <mm_map_level>
    40003578:	3601bd40 	tbz	w0, #0, 40006d20 <one_time_init+0x3e18>
    4000357c:	8b1602a8 	add	x8, x21, x22
    40003580:	92596115 	and	x21, x8, #0xffffff8000000000
    40003584:	91400694 	add	x20, x20, #0x1, lsl #12
    40003588:	eb1702bf 	cmp	x21, x23
    4000358c:	54fffe43 	b.cc	40003554 <one_time_init+0x64c>  // b.lo, b.ul, b.last
    40003590:	d5033a9f 	dsb	ishst
    40003594:	f94047e8 	ldr	x8, [sp, #136]
    40003598:	f148011f 	cmp	x8, #0x200, lsl #12
    4000359c:	5401c588 	b.hi	40006e4c <one_time_init+0x3f44>  // b.pmore
    400035a0:	eb57339f 	cmp	x28, x23, lsr #12
    400035a4:	540000a2 	b.cs	400035b8 <one_time_init+0x6b0>  // b.hs, b.nlast
    400035a8:	d50c833c 	tlbi	vae2is, x28
    400035ac:	9100079c 	add	x28, x28, #0x1
    400035b0:	eb1c031f 	cmp	x24, x28
    400035b4:	54ffffa1 	b.ne	400035a8 <one_time_init+0x6a0>  // b.any
    400035b8:	b00000c0 	adrp	x0, 4001c000 <arch_mm_init.pa_bits_table+0xa68>
    400035bc:	910f7800 	add	x0, x0, #0x3de
    400035c0:	d5033b9f 	dsb	ish
    400035c4:	d5033fdf 	isb
    400035c8:	94003b84 	bl	400123d8 <panic>
    400035cc:	f00000cb 	adrp	x11, 4001e000 <arch_mm_init.pa_bits_table+0x2a68>
    400035d0:	9101716b 	add	x11, x11, #0x5c
    400035d4:	3940056c 	ldrb	w12, [x11, #1]
    400035d8:	8b140268 	add	x8, x19, x20
    400035dc:	39400169 	ldrb	w9, [x11]
    400035e0:	aa0b03ed 	mov	x13, x11
    400035e4:	a90aa3f3 	stp	x19, x8, [sp, #168]
    400035e8:	39400d6a 	ldrb	w10, [x11, #3]
    400035ec:	39400968 	ldrb	w8, [x11, #2]
    400035f0:	aa0b03f0 	mov	x16, x11
    400035f4:	aa0b03f1 	mov	x17, x11
    400035f8:	3940156f 	ldrb	w15, [x11, #5]
    400035fc:	aa0b03e4 	mov	x4, x11
    40003600:	b3781d89 	bfi	x9, x12, #8, #8
    40003604:	3940256e 	ldrb	w14, [x11, #9]
    40003608:	b3781d48 	bfi	x8, x10, #8, #8
    4000360c:	b3703d09 	bfi	x9, x8, #16, #16
    40003610:	39403572 	ldrb	w18, [x11, #13]
    40003614:	39404560 	ldrb	w0, [x11, #17]
    40003618:	39405562 	ldrb	w2, [x11, #21]
    4000361c:	39406561 	ldrb	w1, [x11, #25]
    40003620:	39407563 	ldrb	w3, [x11, #29]
    40003624:	f00000cb 	adrp	x11, 4001e000 <arch_mm_init.pa_bits_table+0x2a68>
    40003628:	9102f16b 	add	x11, x11, #0xbc
    4000362c:	39400d65 	ldrb	w5, [x11, #3]
    40003630:	39400966 	ldrb	w6, [x11, #2]
    40003634:	b3781ca6 	bfi	x6, x5, #8, #8
    40003638:	38404c8c 	ldrb	w12, [x4, #4]!
    4000363c:	33181dec 	bfi	w12, w15, #8, #8
    40003640:	3940056f 	ldrb	w15, [x11, #1]
    40003644:	3940016a 	ldrb	w10, [x11]
    40003648:	b3781dea 	bfi	x10, x15, #8, #8
    4000364c:	b3703cca 	bfi	x10, x6, #16, #16
    40003650:	39400c88 	ldrb	w8, [x4, #3]
    40003654:	3940088f 	ldrb	w15, [x4, #2]
    40003658:	33181d0f 	bfi	w15, w8, #8, #8
    4000365c:	33103dec 	bfi	w12, w15, #16, #16
    40003660:	b3607d89 	bfi	x9, x12, #32, #32
    40003664:	f90247e9 	str	x9, [sp, #1160]
    40003668:	38408da8 	ldrb	w8, [x13, #8]!
    4000366c:	b3781dc8 	bfi	x8, x14, #8, #8
    40003670:	39400da9 	ldrb	w9, [x13, #3]
    40003674:	394009ac 	ldrb	w12, [x13, #2]
    40003678:	b3781d2c 	bfi	x12, x9, #8, #8
    4000367c:	38404daf 	ldrb	w15, [x13, #4]!
    40003680:	39400da9 	ldrb	w9, [x13, #3]
    40003684:	33181e4f 	bfi	w15, w18, #8, #8
    40003688:	b3703d88 	bfi	x8, x12, #16, #16
    4000368c:	394009ac 	ldrb	w12, [x13, #2]
    40003690:	33181d2c 	bfi	w12, w9, #8, #8
    40003694:	33103d8f 	bfi	w15, w12, #16, #16
    40003698:	b3607de8 	bfi	x8, x15, #32, #32
    4000369c:	f9024be8 	str	x8, [sp, #1168]
    400036a0:	38410e0d 	ldrb	w13, [x16, #16]!
    400036a4:	b3781c0d 	bfi	x13, x0, #8, #8
    400036a8:	39400e08 	ldrb	w8, [x16, #3]
    400036ac:	39400a0e 	ldrb	w14, [x16, #2]
    400036b0:	38404e0f 	ldrb	w15, [x16, #4]!
    400036b4:	39401569 	ldrb	w9, [x11, #5]
    400036b8:	3940256c 	ldrb	w12, [x11, #9]
    400036bc:	33181c4f 	bfi	w15, w2, #8, #8
    400036c0:	528000e2 	mov	w2, #0x7                   	// #7
    400036c4:	b3781d0e 	bfi	x14, x8, #8, #8
    400036c8:	aa0b03e8 	mov	x8, x11
    400036cc:	b3703dcd 	bfi	x13, x14, #16, #16
    400036d0:	39400e0e 	ldrb	w14, [x16, #3]
    400036d4:	39400a10 	ldrb	w16, [x16, #2]
    400036d8:	33181dd0 	bfi	w16, w14, #8, #8
    400036dc:	3940356e 	ldrb	w14, [x11, #13]
    400036e0:	33103e0f 	bfi	w15, w16, #16, #16
    400036e4:	b3607ded 	bfi	x13, x15, #32, #32
    400036e8:	f9024fed 	str	x13, [sp, #1176]
    400036ec:	38418e2d 	ldrb	w13, [x17, #24]!
    400036f0:	b3781c2d 	bfi	x13, x1, #8, #8
    400036f4:	900000c1 	adrp	x1, 4001b000 <rodata_begin>
    400036f8:	9128f421 	add	x1, x1, #0xa3d
    400036fc:	39400e2f 	ldrb	w15, [x17, #3]
    40003700:	39400a30 	ldrb	w16, [x17, #2]
    40003704:	b3781df0 	bfi	x16, x15, #8, #8
    40003708:	38404e32 	ldrb	w18, [x17, #4]!
    4000370c:	33181c72 	bfi	w18, w3, #8, #8
    40003710:	39404560 	ldrb	w0, [x11, #17]
    40003714:	aa0b03ef 	mov	x15, x11
    40003718:	b3703e0d 	bfi	x13, x16, #16, #16
    4000371c:	39400e30 	ldrb	w16, [x17, #3]
    40003720:	39400a31 	ldrb	w17, [x17, #2]
    40003724:	33181e11 	bfi	w17, w16, #8, #8
    40003728:	39405570 	ldrb	w16, [x11, #21]
    4000372c:	33103e32 	bfi	w18, w17, #16, #16
    40003730:	39406571 	ldrb	w17, [x11, #25]
    40003734:	b3607e4d 	bfi	x13, x18, #32, #32
    40003738:	aa0b03f2 	mov	x18, x11
    4000373c:	f90253ed 	str	x13, [sp, #1184]
    40003740:	38404e4d 	ldrb	w13, [x18, #4]!
    40003744:	33181d2d 	bfi	w13, w9, #8, #8
    40003748:	39400e49 	ldrb	w9, [x18, #3]
    4000374c:	39400a52 	ldrb	w18, [x18, #2]
    40003750:	33181d32 	bfi	w18, w9, #8, #8
    40003754:	33103e4d 	bfi	w13, w18, #16, #16
    40003758:	b3607daa 	bfi	x10, x13, #32, #32
    4000375c:	f90073ea 	str	x10, [sp, #224]
    40003760:	38408d09 	ldrb	w9, [x8, #8]!
    40003764:	b3781d89 	bfi	x9, x12, #8, #8
    40003768:	39400d0c 	ldrb	w12, [x8, #3]
    4000376c:	3940090d 	ldrb	w13, [x8, #2]
    40003770:	b3781d8d 	bfi	x13, x12, #8, #8
    40003774:	38404d12 	ldrb	w18, [x8, #4]!
    40003778:	39400d0c 	ldrb	w12, [x8, #3]
    4000377c:	39400908 	ldrb	w8, [x8, #2]
    40003780:	33181dd2 	bfi	w18, w14, #8, #8
    40003784:	b3703da9 	bfi	x9, x13, #16, #16
    40003788:	33181d88 	bfi	w8, w12, #8, #8
    4000378c:	33103d12 	bfi	w18, w8, #16, #16
    40003790:	b3607e49 	bfi	x9, x18, #32, #32
    40003794:	f90077e9 	str	x9, [sp, #232]
    40003798:	38410de8 	ldrb	w8, [x15, #16]!
    4000379c:	b3781c08 	bfi	x8, x0, #8, #8
    400037a0:	aa1303e0 	mov	x0, x19
    400037a4:	39400de9 	ldrb	w9, [x15, #3]
    400037a8:	394009ec 	ldrb	w12, [x15, #2]
    400037ac:	38404ded 	ldrb	w13, [x15, #4]!
    400037b0:	33181e0d 	bfi	w13, w16, #8, #8
    400037b4:	b3781d2c 	bfi	x12, x9, #8, #8
    400037b8:	39400de9 	ldrb	w9, [x15, #3]
    400037bc:	b3703d88 	bfi	x8, x12, #16, #16
    400037c0:	394009ec 	ldrb	w12, [x15, #2]
    400037c4:	33181d2c 	bfi	w12, w9, #8, #8
    400037c8:	33103d8d 	bfi	w13, w12, #16, #16
    400037cc:	b3607da8 	bfi	x8, x13, #32, #32
    400037d0:	aa0b03ea 	mov	x10, x11
    400037d4:	f9007be8 	str	x8, [sp, #240]
    400037d8:	38418d48 	ldrb	w8, [x10, #24]!
    400037dc:	39407569 	ldrb	w9, [x11, #29]
    400037e0:	b3781e28 	bfi	x8, x17, #8, #8
    400037e4:	39400d4b 	ldrb	w11, [x10, #3]
    400037e8:	3940094c 	ldrb	w12, [x10, #2]
    400037ec:	38404d4d 	ldrb	w13, [x10, #4]!
    400037f0:	f901e3ff 	str	xzr, [sp, #960]
    400037f4:	33181d2d 	bfi	w13, w9, #8, #8
    400037f8:	39400d49 	ldrb	w9, [x10, #3]
    400037fc:	3940094a 	ldrb	w10, [x10, #2]
    40003800:	b3781d6c 	bfi	x12, x11, #8, #8
    40003804:	b3703d88 	bfi	x8, x12, #16, #16
    40003808:	33181d2a 	bfi	w10, w9, #8, #8
    4000380c:	33103d4d 	bfi	w13, w10, #16, #16
    40003810:	b3607da8 	bfi	x8, x13, #32, #32
    40003814:	f9007fe8 	str	x8, [sp, #248]
    40003818:	900000e8 	adrp	x8, 4001f000 <cpus>
    4000381c:	f9408508 	ldr	x8, [x8, #264]
    40003820:	f9400108 	ldr	x8, [x8]
    40003824:	f90243e8 	str	x8, [sp, #1152]
    40003828:	940030a3 	bl	4000fab4 <fdt_path_offset_namelen>
    4000382c:	37f9b140 	tbnz	w0, #31, 40006e54 <one_time_init+0x3f4c>
    40003830:	a94aa3e9 	ldp	x9, x8, [sp, #168]
    40003834:	91401bf8 	add	x24, sp, #0x6, lsl #12
    40003838:	911ec318 	add	x24, x24, #0x7b0
    4000383c:	f933ebe9 	str	x9, [sp, #26576]
    40003840:	f933efe8 	str	x8, [sp, #26584]
    40003844:	b9003300 	str	w0, [x24, #48]
    40003848:	91401be0 	add	x0, sp, #0x6, lsl #12
    4000384c:	900000c1 	adrp	x1, 4001b000 <rodata_begin>
    40003850:	911e7c21 	add	x1, x1, #0x79f
    40003854:	911f4000 	add	x0, x0, #0x7d0
    40003858:	d10283a2 	sub	x2, x29, #0xa0
    4000385c:	94002add 	bl	4000e3d0 <fdt_read_number>
    40003860:	3601b000 	tbz	w0, #0, 40006e60 <one_time_init+0x3f58>
    40003864:	91401be0 	add	x0, sp, #0x6, lsl #12
    40003868:	91401be2 	add	x2, sp, #0x6, lsl #12
    4000386c:	900000c1 	adrp	x1, 4001b000 <rodata_begin>
    40003870:	9131b021 	add	x1, x1, #0xc6c
    40003874:	911f4000 	add	x0, x0, #0x7d0
    40003878:	911ec042 	add	x2, x2, #0x7b0
    4000387c:	94002ad5 	bl	4000e3d0 <fdt_read_number>
    40003880:	3601af60 	tbz	w0, #0, 40006e6c <one_time_init+0x3f64>
    40003884:	f85603a8 	ldur	x8, [x29, #-160]
    40003888:	f9023be8 	str	x8, [sp, #1136]
    4000388c:	f973dbe8 	ldr	x8, [sp, #26544]
    40003890:	900000c1 	adrp	x1, 4001b000 <rodata_begin>
    40003894:	9120bc21 	add	x1, x1, #0x82f
    40003898:	528000a2 	mov	w2, #0x5                   	// #5
    4000389c:	aa1303e0 	mov	x0, x19
    400038a0:	f9013fff 	str	xzr, [sp, #632]
    400038a4:	f9023fe8 	str	x8, [sp, #1144]
    400038a8:	94003083 	bl	4000fab4 <fdt_path_offset_namelen>
    400038ac:	37f9ae60 	tbnz	w0, #31, 40006e78 <one_time_init+0x3f70>
    400038b0:	a94aa3e9 	ldp	x9, x8, [sp, #168]
    400038b4:	2a0003f3 	mov	w19, w0
    400038b8:	f933ebe9 	str	x9, [sp, #26576]
    400038bc:	f933efe8 	str	x8, [sp, #26584]
    400038c0:	b9003300 	str	w0, [x24, #48]
    400038c4:	91401be0 	add	x0, sp, #0x6, lsl #12
    400038c8:	91401be1 	add	x1, sp, #0x6, lsl #12
    400038cc:	911ec021 	add	x1, x1, #0x7b0
    400038d0:	911f4000 	add	x0, x0, #0x7d0
    400038d4:	94002a70 	bl	4000e294 <fdt_address_size>
    400038d8:	3601a4c0 	tbz	w0, #0, 40006d70 <one_time_init+0x3e68>
    400038dc:	f973ebf4 	ldr	x20, [sp, #26576]
    400038e0:	72010a7f 	tst	w19, #0x80000003
    400038e4:	b900cbff 	str	wzr, [sp, #200]
    400038e8:	b9016313 	str	w19, [x24, #352]
    400038ec:	5401acc1 	b.ne	40006e84 <one_time_init+0x3f7c>  // b.any
    400038f0:	d10283a2 	sub	x2, x29, #0xa0
    400038f4:	aa1403e0 	mov	x0, x20
    400038f8:	2a1303e1 	mov	w1, w19
    400038fc:	94002d5f 	bl	4000ee78 <fdt_next_tag>
    40003900:	7100041f 	cmp	w0, #0x1
    40003904:	5401ac01 	b.ne	40006e84 <one_time_init+0x3f7c>  // b.any
    40003908:	b9416313 	ldr	w19, [x24, #352]
    4000390c:	b900cbf3 	str	w19, [sp, #200]
    40003910:	37f9a313 	tbnz	w19, #31, 40006d70 <one_time_init+0x3e68>
    40003914:	9108e3e8 	add	x8, sp, #0x238
    40003918:	91062115 	add	x21, x8, #0x188
    4000391c:	910323e2 	add	x2, sp, #0xc8
    40003920:	aa1403e0 	mov	x0, x20
    40003924:	2a1303e1 	mov	w1, w19
    40003928:	94002d54 	bl	4000ee78 <fdt_next_tag>
    4000392c:	7100041f 	cmp	w0, #0x1
    40003930:	540000e0 	b.eq	4000394c <one_time_init+0xa44>  // b.none
    40003934:	7100081f 	cmp	w0, #0x2
    40003938:	5401a1c0 	b.eq	40006d70 <one_time_init+0x3e68>  // b.none
    4000393c:	7100241f 	cmp	w0, #0x9
    40003940:	5401a180 	b.eq	40006d70 <one_time_init+0x3e68>  // b.none
    40003944:	b940cbf3 	ldr	w19, [sp, #200]
    40003948:	17fffff5 	b	4000391c <one_time_init+0xa14>
    4000394c:	7100027f 	cmp	w19, #0x0
    40003950:	5a9fa276 	csinv	w22, w19, wzr, ge  // ge = tcont
    40003954:	37f9a0f3 	tbnz	w19, #31, 40006d70 <one_time_init+0x3e68>
    40003958:	900000d7 	adrp	x23, 4001b000 <rodata_begin>
    4000395c:	912f6ef7 	add	x23, x23, #0xbdb
    40003960:	b9003316 	str	w22, [x24, #48]
    40003964:	52800178 	mov	w24, #0xb                   	// #11
    40003968:	9108e3fa 	add	x26, sp, #0x238
    4000396c:	52800c7b 	mov	w27, #0x63                  	// #99
    40003970:	52800ebc 	mov	w28, #0x75                  	// #117
    40003974:	900000d9 	adrp	x25, 4001b000 <rodata_begin>
    40003978:	912c8b39 	add	x25, x25, #0xb22
    4000397c:	aa1803e8 	mov	x8, x24
    40003980:	b4000068 	cbz	x8, 4000398c <one_time_init+0xa84>
    40003984:	d1000508 	sub	x8, x8, #0x1
    40003988:	b5ffffe8 	cbnz	x8, 40003984 <one_time_init+0xa7c>
    4000398c:	9102e3e4 	add	x4, sp, #0xb8
    40003990:	910323e5 	add	x5, sp, #0xc8
    40003994:	aa1403e0 	mov	x0, x20
    40003998:	2a1603e1 	mov	w1, w22
    4000399c:	aa1703e2 	mov	x2, x23
    400039a0:	2a1803e3 	mov	w3, w24
    400039a4:	94002e5b 	bl	4000f310 <fdt_get_property_namelen_>
    400039a8:	b4000e20 	cbz	x0, 40003b6c <one_time_init+0xc64>
    400039ac:	39405288 	ldrb	w8, [x20, #20]
    400039b0:	53081d08 	lsl	w8, w8, #24
    400039b4:	39405689 	ldrb	w9, [x20, #21]
    400039b8:	33101d28 	bfi	w8, w9, #16, #8
    400039bc:	39405a89 	ldrb	w9, [x20, #22]
    400039c0:	33181d28 	bfi	w8, w9, #8, #8
    400039c4:	39405e89 	ldrb	w9, [x20, #23]
    400039c8:	2a090108 	orr	w8, w8, w9
    400039cc:	71003d1f 	cmp	w8, #0xf
    400039d0:	54000268 	b.hi	40003a1c <one_time_init+0xb14>  // b.pmore
    400039d4:	b940cbe8 	ldr	w8, [sp, #200]
    400039d8:	11001108 	add	w8, w8, #0x4
    400039dc:	7200091f 	tst	w8, #0x7
    400039e0:	540001e0 	b.eq	40003a1c <one_time_init+0xb14>  // b.none
    400039e4:	39401008 	ldrb	w8, [x0, #4]
    400039e8:	53081d08 	lsl	w8, w8, #24
    400039ec:	39401409 	ldrb	w9, [x0, #5]
    400039f0:	33101d28 	bfi	w8, w9, #16, #8
    400039f4:	39401809 	ldrb	w9, [x0, #6]
    400039f8:	33181d28 	bfi	w8, w9, #8, #8
    400039fc:	39401c09 	ldrb	w9, [x0, #7]
    40003a00:	2a090108 	orr	w8, w8, w9
    40003a04:	7100211f 	cmp	w8, #0x8
    40003a08:	540000a3 	b.cc	40003a1c <one_time_init+0xb14>  // b.lo, b.ul, b.last
    40003a0c:	91004008 	add	x8, x0, #0x10
    40003a10:	b980bbea 	ldrsw	x10, [sp, #184]
    40003a14:	36f800aa 	tbz	w10, #31, 40003a28 <one_time_init+0xb20>
    40003a18:	14000ce1 	b	40006d9c <one_time_init+0x3e94>
    40003a1c:	91003008 	add	x8, x0, #0xc
    40003a20:	b980bbea 	ldrsw	x10, [sp, #184]
    40003a24:	37f99bca 	tbnz	w10, #31, 40006d9c <one_time_init+0x3e94>
    40003a28:	8b0a0109 	add	x9, x8, x10
    40003a2c:	7100815f 	cmp	w10, #0x20
    40003a30:	a93627a8 	stp	x8, x9, [x29, #-160]
    40003a34:	540009c8 	b.hi	40003b6c <one_time_init+0xc64>  // b.pmore
    40003a38:	3400016a 	cbz	w10, 40003a64 <one_time_init+0xb5c>
    40003a3c:	39400109 	ldrb	w9, [x8]
    40003a40:	71018d3f 	cmp	w9, #0x63
    40003a44:	54000181 	b.ne	40003a74 <one_time_init+0xb6c>  // b.any
    40003a48:	7100055f 	cmp	w10, #0x1
    40003a4c:	54000a61 	b.ne	40003b98 <one_time_init+0xc90>  // b.any
    40003a50:	2a1b03ea 	mov	w10, w27
    40003a54:	2a1b03e9 	mov	w9, w27
    40003a58:	6b09015f 	cmp	w10, w9
    40003a5c:	54000120 	b.eq	40003a80 <one_time_init+0xb78>  // b.none
    40003a60:	14000043 	b	40003b6c <one_time_init+0xc64>
    40003a64:	2a1f03e9 	mov	w9, wzr
    40003a68:	6b09015f 	cmp	w10, w9
    40003a6c:	540000a0 	b.eq	40003a80 <one_time_init+0xb78>  // b.none
    40003a70:	1400003f 	b	40003b6c <one_time_init+0xc64>
    40003a74:	2a1b03ea 	mov	w10, w27
    40003a78:	6b09015f 	cmp	w10, w9
    40003a7c:	54000781 	b.ne	40003b6c <one_time_init+0xc64>  // b.any
    40003a80:	9102e3e4 	add	x4, sp, #0xb8
    40003a84:	910323e5 	add	x5, sp, #0xc8
    40003a88:	aa1403e0 	mov	x0, x20
    40003a8c:	2a1603e1 	mov	w1, w22
    40003a90:	aa1903e2 	mov	x2, x25
    40003a94:	52800063 	mov	w3, #0x3                   	// #3
    40003a98:	94002e1e 	bl	4000f310 <fdt_get_property_namelen_>
    40003a9c:	b4000680 	cbz	x0, 40003b6c <one_time_init+0xc64>
    40003aa0:	39405288 	ldrb	w8, [x20, #20]
    40003aa4:	53081d08 	lsl	w8, w8, #24
    40003aa8:	39405689 	ldrb	w9, [x20, #21]
    40003aac:	33101d28 	bfi	w8, w9, #16, #8
    40003ab0:	39405a89 	ldrb	w9, [x20, #22]
    40003ab4:	33181d28 	bfi	w8, w9, #8, #8
    40003ab8:	39405e89 	ldrb	w9, [x20, #23]
    40003abc:	2a090108 	orr	w8, w8, w9
    40003ac0:	71003d1f 	cmp	w8, #0xf
    40003ac4:	54000268 	b.hi	40003b10 <one_time_init+0xc08>  // b.pmore
    40003ac8:	b940cbe8 	ldr	w8, [sp, #200]
    40003acc:	11001108 	add	w8, w8, #0x4
    40003ad0:	7200091f 	tst	w8, #0x7
    40003ad4:	540001e0 	b.eq	40003b10 <one_time_init+0xc08>  // b.none
    40003ad8:	39401008 	ldrb	w8, [x0, #4]
    40003adc:	53081d08 	lsl	w8, w8, #24
    40003ae0:	39401409 	ldrb	w9, [x0, #5]
    40003ae4:	33101d28 	bfi	w8, w9, #16, #8
    40003ae8:	39401809 	ldrb	w9, [x0, #6]
    40003aec:	33181d28 	bfi	w8, w9, #8, #8
    40003af0:	39401c09 	ldrb	w9, [x0, #7]
    40003af4:	2a090108 	orr	w8, w8, w9
    40003af8:	7100211f 	cmp	w8, #0x8
    40003afc:	540000a3 	b.cc	40003b10 <one_time_init+0xc08>  // b.lo, b.ul, b.last
    40003b00:	91004008 	add	x8, x0, #0x10
    40003b04:	b980bbe9 	ldrsw	x9, [sp, #184]
    40003b08:	36f800a9 	tbz	w9, #31, 40003b1c <one_time_init+0xc14>
    40003b0c:	14000ca4 	b	40006d9c <one_time_init+0x3e94>
    40003b10:	91003008 	add	x8, x0, #0xc
    40003b14:	b980bbe9 	ldrsw	x9, [sp, #184]
    40003b18:	37f99429 	tbnz	w9, #31, 40006d9c <one_time_init+0x3e94>
    40003b1c:	8b09010a 	add	x10, x8, x9
    40003b20:	a9362ba8 	stp	x8, x10, [x29, #-160]
    40003b24:	34000249 	cbz	w9, 40003b6c <one_time_init+0xc64>
    40003b28:	f973dbf3 	ldr	x19, [sp, #26544]
    40003b2c:	f9413fe8 	ldr	x8, [sp, #632]
    40003b30:	f100211f 	cmp	x8, #0x8
    40003b34:	540190e2 	b.cs	40006d50 <one_time_init+0x3e48>  // b.hs, b.nlast
    40003b38:	d10283a0 	sub	x0, x29, #0xa0
    40003b3c:	910323e2 	add	x2, sp, #0xc8
    40003b40:	aa1303e1 	mov	x1, x19
    40003b44:	94002a80 	bl	4000e544 <fdt_parse_number>
    40003b48:	360190e0 	tbz	w0, #0, 40006d64 <one_time_init+0x3e5c>
    40003b4c:	f9413fe9 	ldr	x9, [sp, #632]
    40003b50:	9100052a 	add	x10, x9, #0x1
    40003b54:	f94067e8 	ldr	x8, [sp, #200]
    40003b58:	f9013fea 	str	x10, [sp, #632]
    40003b5c:	f8297b48 	str	x8, [x26, x9, lsl #3]
    40003b60:	a97623a9 	ldp	x9, x8, [x29, #-160]
    40003b64:	eb09011f 	cmp	x8, x9
    40003b68:	54fffe21 	b.ne	40003b2c <one_time_init+0xc24>  // b.any
    40003b6c:	aa1403e0 	mov	x0, x20
    40003b70:	2a1603e1 	mov	w1, w22
    40003b74:	94002d1c 	bl	4000efe4 <fdt_next_subnode>
    40003b78:	37f80520 	tbnz	w0, #31, 40003c1c <one_time_init+0xd14>
    40003b7c:	91401be8 	add	x8, sp, #0x6, lsl #12
    40003b80:	911ec108 	add	x8, x8, #0x7b0
    40003b84:	2a0003f6 	mov	w22, w0
    40003b88:	b9003100 	str	w0, [x8, #48]
    40003b8c:	aa1803e8 	mov	x8, x24
    40003b90:	b5ffefa8 	cbnz	x8, 40003984 <one_time_init+0xa7c>
    40003b94:	17ffff7e 	b	4000398c <one_time_init+0xa84>
    40003b98:	39400509 	ldrb	w9, [x8, #1]
    40003b9c:	7101c13f 	cmp	w9, #0x70
    40003ba0:	54000101 	b.ne	40003bc0 <one_time_init+0xcb8>  // b.any
    40003ba4:	7100095f 	cmp	w10, #0x2
    40003ba8:	54000141 	b.ne	40003bd0 <one_time_init+0xcc8>  // b.any
    40003bac:	52800e0a 	mov	w10, #0x70                  	// #112
    40003bb0:	52800e09 	mov	w9, #0x70                  	// #112
    40003bb4:	6b09015f 	cmp	w10, w9
    40003bb8:	54fff640 	b.eq	40003a80 <one_time_init+0xb78>  // b.none
    40003bbc:	17ffffec 	b	40003b6c <one_time_init+0xc64>
    40003bc0:	52800e0a 	mov	w10, #0x70                  	// #112
    40003bc4:	6b09015f 	cmp	w10, w9
    40003bc8:	54fff5c0 	b.eq	40003a80 <one_time_init+0xb78>  // b.none
    40003bcc:	17ffffe8 	b	40003b6c <one_time_init+0xc64>
    40003bd0:	39400909 	ldrb	w9, [x8, #2]
    40003bd4:	7101d53f 	cmp	w9, #0x75
    40003bd8:	54000101 	b.ne	40003bf8 <one_time_init+0xcf0>  // b.any
    40003bdc:	71000d5f 	cmp	w10, #0x3
    40003be0:	54000141 	b.ne	40003c08 <one_time_init+0xd00>  // b.any
    40003be4:	2a1c03ea 	mov	w10, w28
    40003be8:	2a1c03e9 	mov	w9, w28
    40003bec:	6b09015f 	cmp	w10, w9
    40003bf0:	54fff480 	b.eq	40003a80 <one_time_init+0xb78>  // b.none
    40003bf4:	17ffffde 	b	40003b6c <one_time_init+0xc64>
    40003bf8:	2a1c03ea 	mov	w10, w28
    40003bfc:	6b09015f 	cmp	w10, w9
    40003c00:	54fff400 	b.eq	40003a80 <one_time_init+0xb78>  // b.none
    40003c04:	17ffffda 	b	40003b6c <one_time_init+0xc64>
    40003c08:	39400d09 	ldrb	w9, [x8, #3]
    40003c0c:	2a1f03ea 	mov	w10, wzr
    40003c10:	6b09015f 	cmp	w10, w9
    40003c14:	54fff360 	b.eq	40003a80 <one_time_init+0xb78>  // b.none
    40003c18:	17ffffd5 	b	40003b6c <one_time_init+0xc64>
    40003c1c:	9108e3f3 	add	x19, sp, #0x238
    40003c20:	91012276 	add	x22, x19, #0x48
    40003c24:	52800284 	mov	w4, #0x14                  	// #20
    40003c28:	9102a3e0 	add	x0, sp, #0xa8
    40003c2c:	911223e1 	add	x1, sp, #0x488
    40003c30:	aa1603e2 	mov	x2, x22
    40003c34:	aa1503e3 	mov	x3, x21
    40003c38:	94003502 	bl	40011040 <fdt_find_memory_ranges>
    40003c3c:	360189a0 	tbz	w0, #0, 40006d70 <one_time_init+0x3e68>
    40003c40:	91064262 	add	x2, x19, #0x190
    40003c44:	9108c263 	add	x3, x19, #0x230
    40003c48:	52800144 	mov	w4, #0xa                   	// #10
    40003c4c:	9102a3e0 	add	x0, sp, #0xa8
    40003c50:	910383e1 	add	x1, sp, #0xe0
    40003c54:	940034fb 	bl	40011040 <fdt_find_memory_ranges>
    40003c58:	360188c0 	tbz	w0, #0, 40006d70 <one_time_init+0x3e68>
    40003c5c:	f941e3e8 	ldr	x8, [sp, #960]
    40003c60:	b40001e8 	cbz	x8, 40003c9c <one_time_init+0xd94>
    40003c64:	9108e3e8 	add	x8, sp, #0x238
    40003c68:	aa1f03f4 	mov	x20, xzr
    40003c6c:	b00000d3 	adrp	x19, 4001c000 <arch_mm_init.pa_bits_table+0xa68>
    40003c70:	912d8273 	add	x19, x19, #0xb60
    40003c74:	91014115 	add	x21, x8, #0x50
    40003c78:	a97fa2a1 	ldp	x1, x8, [x21, #-8]
    40003c7c:	d1000502 	sub	x2, x8, #0x1
    40003c80:	aa1303e0 	mov	x0, x19
    40003c84:	94002817 	bl	4000dce0 <dlog>
    40003c88:	f941e3e8 	ldr	x8, [sp, #960]
    40003c8c:	91000694 	add	x20, x20, #0x1
    40003c90:	910042b5 	add	x21, x21, #0x10
    40003c94:	eb08029f 	cmp	x20, x8
    40003c98:	54ffff03 	b.cc	40003c78 <one_time_init+0xd70>  // b.lo, b.ul, b.last
    40003c9c:	f9423be1 	ldr	x1, [sp, #1136]
    40003ca0:	f90047f6 	str	x22, [sp, #136]
    40003ca4:	b40009c1 	cbz	x1, 40003ddc <one_time_init+0xed4>
    40003ca8:	f9423fe8 	ldr	x8, [sp, #1144]
    40003cac:	d1000502 	sub	x2, x8, #0x1
    40003cb0:	b00000c0 	adrp	x0, 4001c000 <arch_mm_init.pa_bits_table+0xa68>
    40003cb4:	912c4000 	add	x0, x0, #0xb10
    40003cb8:	9400280a 	bl	4000dce0 <dlog>
    40003cbc:	f9423fe8 	ldr	x8, [sp, #1144]
    40003cc0:	913ffd08 	add	x8, x8, #0xfff
    40003cc4:	f9423bf8 	ldr	x24, [sp, #1136]
    40003cc8:	d2c0101b 	mov	x27, #0x8000000000          	// #549755813888
    40003ccc:	92748f19 	and	x25, x24, #0xfffffffff000
    40003cd0:	9274cd09 	and	x9, x8, #0xfffffffffffff000
    40003cd4:	d367fd08 	lsr	x8, x8, #39
    40003cd8:	f100011f 	cmp	x8, #0x0
    40003cdc:	9a9b0135 	csel	x21, x9, x27, eq  // eq = none
    40003ce0:	eb1902ba 	subs	x26, x21, x25
    40003ce4:	54000689 	b.ls	40003db4 <one_time_init+0xeac>  // b.plast
    40003ce8:	d0000428 	adrp	x8, 40089000 <dlog_lock_enabled>
    40003cec:	f9401108 	ldr	x8, [x8, #32]
    40003cf0:	d367bf17 	ubfx	x23, x24, #39, #9
    40003cf4:	8b173114 	add	x20, x8, x23, lsl #12
    40003cf8:	b00000f3 	adrp	x19, 40020000 <arch_mm_config>
    40003cfc:	9100e273 	add	x19, x19, #0x38
    40003d00:	aa1903f6 	mov	x22, x25
    40003d04:	d280d088 	mov	x8, #0x684                 	// #1668
    40003d08:	f2e00808 	movk	x8, #0x40, lsl #48
    40003d0c:	91000503 	add	x3, x8, #0x1
    40003d10:	aa1603e0 	mov	x0, x22
    40003d14:	aa1503e1 	mov	x1, x21
    40003d18:	aa1603e2 	mov	x2, x22
    40003d1c:	aa1403e4 	mov	x4, x20
    40003d20:	52800045 	mov	w5, #0x2                   	// #2
    40003d24:	52800086 	mov	w6, #0x4                   	// #4
    40003d28:	aa1303e7 	mov	x7, x19
    40003d2c:	940036bf 	bl	40011828 <mm_map_level>
    40003d30:	36018580 	tbz	w0, #0, 40006de0 <one_time_init+0x3ed8>
    40003d34:	8b1b02c8 	add	x8, x22, x27
    40003d38:	92596116 	and	x22, x8, #0xffffff8000000000
    40003d3c:	91400694 	add	x20, x20, #0x1, lsl #12
    40003d40:	eb1502df 	cmp	x22, x21
    40003d44:	54fffe03 	b.cc	40003d04 <one_time_init+0xdfc>  // b.lo, b.ul, b.last
    40003d48:	eb1902bf 	cmp	x21, x25
    40003d4c:	54000349 	b.ls	40003db4 <one_time_init+0xeac>  // b.plast
    40003d50:	d0000428 	adrp	x8, 40089000 <dlog_lock_enabled>
    40003d54:	f9401108 	ldr	x8, [x8, #32]
    40003d58:	8b173116 	add	x22, x8, x23, lsl #12
    40003d5c:	b00000f4 	adrp	x20, 40020000 <arch_mm_config>
    40003d60:	9100e294 	add	x20, x20, #0x38
    40003d64:	528000b3 	mov	w19, #0x5                   	// #5
    40003d68:	d2c0101b 	mov	x27, #0x8000000000          	// #549755813888
    40003d6c:	aa1903f7 	mov	x23, x25
    40003d70:	d280d088 	mov	x8, #0x684                 	// #1668
    40003d74:	f2e00808 	movk	x8, #0x40, lsl #48
    40003d78:	91000503 	add	x3, x8, #0x1
    40003d7c:	aa1703e0 	mov	x0, x23
    40003d80:	aa1503e1 	mov	x1, x21
    40003d84:	aa1703e2 	mov	x2, x23
    40003d88:	aa1603e4 	mov	x4, x22
    40003d8c:	52800045 	mov	w5, #0x2                   	// #2
    40003d90:	2a1303e6 	mov	w6, w19
    40003d94:	aa1403e7 	mov	x7, x20
    40003d98:	940036a4 	bl	40011828 <mm_map_level>
    40003d9c:	36017c20 	tbz	w0, #0, 40006d20 <one_time_init+0x3e18>
    40003da0:	8b1b02e8 	add	x8, x23, x27
    40003da4:	92596117 	and	x23, x8, #0xffffff8000000000
    40003da8:	914006d6 	add	x22, x22, #0x1, lsl #12
    40003dac:	eb1502ff 	cmp	x23, x21
    40003db0:	54fffe03 	b.cc	40003d70 <one_time_init+0xe68>  // b.lo, b.ul, b.last
    40003db4:	f148035f 	cmp	x26, #0x200, lsl #12
    40003db8:	d5033a9f 	dsb	ishst
    40003dbc:	54000169 	b.ls	40003de8 <one_time_init+0xee0>  // b.plast
    40003dc0:	d50c831f 	tlbi	alle2is
    40003dc4:	14000011 	b	40003e08 <one_time_init+0xf00>
    40003dc8:	aa1903fb 	mov	x27, x25
    40003dcc:	d000043a 	adrp	x26, 40089000 <dlog_lock_enabled>
    40003dd0:	d00000c0 	adrp	x0, 4001d000 <arch_mm_init.pa_bits_table+0x1a68>
    40003dd4:	912d1c00 	add	x0, x0, #0xb47
    40003dd8:	17fffd1e 	b	40003250 <one_time_init+0x348>
    40003ddc:	a94aa3e9 	ldp	x9, x8, [sp, #168]
    40003de0:	a90ba3e9 	stp	x9, x8, [sp, #184]
    40003de4:	14000017 	b	40003e40 <one_time_init+0xf38>
    40003de8:	d34cff28 	lsr	x8, x25, #12
    40003dec:	eb55311f 	cmp	x8, x21, lsr #12
    40003df0:	540000c2 	b.cs	40003e08 <one_time_init+0xf00>  // b.hs, b.nlast
    40003df4:	d34cfea9 	lsr	x9, x21, #12
    40003df8:	d50c8328 	tlbi	vae2is, x8
    40003dfc:	91000508 	add	x8, x8, #0x1
    40003e00:	eb08013f 	cmp	x9, x8
    40003e04:	54ffffa1 	b.ne	40003df8 <one_time_init+0xef0>  // b.any
    40003e08:	d5033b9f 	dsb	ish
    40003e0c:	d5033fdf 	isb
    40003e10:	b4017e98 	cbz	x24, 40006de0 <one_time_init+0x3ed8>
    40003e14:	f9423be8 	ldr	x8, [sp, #1136]
    40003e18:	91401be1 	add	x1, sp, #0x6, lsl #12
    40003e1c:	910323e0 	add	x0, sp, #0xc8
    40003e20:	f9423fe9 	ldr	x9, [sp, #1144]
    40003e24:	cb080128 	sub	x8, x9, x8
    40003e28:	8b080308 	add	x8, x24, x8
    40003e2c:	911e4021 	add	x1, x1, #0x790
    40003e30:	9102e3e2 	add	x2, sp, #0xb8
    40003e34:	a90ca3f8 	stp	x24, x8, [sp, #200]
    40003e38:	97fff95d 	bl	400023ac <cpio_get_file>
    40003e3c:	360182e0 	tbz	w0, #0, 40006e98 <one_time_init+0x3f90>
    40003e40:	d0000420 	adrp	x0, 40089000 <dlog_lock_enabled>
    40003e44:	91008000 	add	x0, x0, #0x20
    40003e48:	911223e1 	add	x1, sp, #0x488
    40003e4c:	9102e3e2 	add	x2, sp, #0xb8
    40003e50:	94001771 	bl	40009c14 <manifest_init>
    40003e54:	35018280 	cbnz	w0, 40006ea4 <one_time_init+0x3f9c>
    40003e58:	a94aa3f7 	ldp	x23, x8, [sp, #168]
    40003e5c:	913ffd08 	add	x8, x8, #0xfff
    40003e60:	9274cd09 	and	x9, x8, #0xfffffffffffff000
    40003e64:	d367fd08 	lsr	x8, x8, #39
    40003e68:	f100011f 	cmp	x8, #0x0
    40003e6c:	d2c0101a 	mov	x26, #0x8000000000          	// #549755813888
    40003e70:	92748ef8 	and	x24, x23, #0xfffffffff000
    40003e74:	9a9a0135 	csel	x21, x9, x26, eq  // eq = none
    40003e78:	eb1802b9 	subs	x25, x21, x24
    40003e7c:	54000629 	b.ls	40003f40 <one_time_init+0x1038>  // b.plast
    40003e80:	d0000428 	adrp	x8, 40089000 <dlog_lock_enabled>
    40003e84:	f9401108 	ldr	x8, [x8, #32]
    40003e88:	d367befb 	ubfx	x27, x23, #39, #9
    40003e8c:	8b1b3114 	add	x20, x8, x27, lsl #12
    40003e90:	b00000f3 	adrp	x19, 40020000 <arch_mm_config>
    40003e94:	9100e273 	add	x19, x19, #0x38
    40003e98:	aa1803f6 	mov	x22, x24
    40003e9c:	d280d083 	mov	x3, #0x684                 	// #1668
    40003ea0:	aa1603e0 	mov	x0, x22
    40003ea4:	aa1503e1 	mov	x1, x21
    40003ea8:	aa1603e2 	mov	x2, x22
    40003eac:	f2e00803 	movk	x3, #0x40, lsl #48
    40003eb0:	aa1403e4 	mov	x4, x20
    40003eb4:	52800045 	mov	w5, #0x2                   	// #2
    40003eb8:	528000c6 	mov	w6, #0x6                   	// #6
    40003ebc:	aa1303e7 	mov	x7, x19
    40003ec0:	9400365a 	bl	40011828 <mm_map_level>
    40003ec4:	36017820 	tbz	w0, #0, 40006dc8 <one_time_init+0x3ec0>
    40003ec8:	8b1a02c8 	add	x8, x22, x26
    40003ecc:	92596116 	and	x22, x8, #0xffffff8000000000
    40003ed0:	91400694 	add	x20, x20, #0x1, lsl #12
    40003ed4:	eb1502df 	cmp	x22, x21
    40003ed8:	54fffe23 	b.cc	40003e9c <one_time_init+0xf94>  // b.lo, b.ul, b.last
    40003edc:	eb1802bf 	cmp	x21, x24
    40003ee0:	54000309 	b.ls	40003f40 <one_time_init+0x1038>  // b.plast
    40003ee4:	d0000428 	adrp	x8, 40089000 <dlog_lock_enabled>
    40003ee8:	f9401108 	ldr	x8, [x8, #32]
    40003eec:	8b1b3114 	add	x20, x8, x27, lsl #12
    40003ef0:	b00000f3 	adrp	x19, 40020000 <arch_mm_config>
    40003ef4:	9100e273 	add	x19, x19, #0x38
    40003ef8:	d2c0101a 	mov	x26, #0x8000000000          	// #549755813888
    40003efc:	aa1803f6 	mov	x22, x24
    40003f00:	d280d083 	mov	x3, #0x684                 	// #1668
    40003f04:	aa1603e0 	mov	x0, x22
    40003f08:	aa1503e1 	mov	x1, x21
    40003f0c:	aa1603e2 	mov	x2, x22
    40003f10:	f2e00803 	movk	x3, #0x40, lsl #48
    40003f14:	aa1403e4 	mov	x4, x20
    40003f18:	52800045 	mov	w5, #0x2                   	// #2
    40003f1c:	528000e6 	mov	w6, #0x7                   	// #7
    40003f20:	aa1303e7 	mov	x7, x19
    40003f24:	94003641 	bl	40011828 <mm_map_level>
    40003f28:	36016fc0 	tbz	w0, #0, 40006d20 <one_time_init+0x3e18>
    40003f2c:	8b1a02c8 	add	x8, x22, x26
    40003f30:	92596116 	and	x22, x8, #0xffffff8000000000
    40003f34:	91400694 	add	x20, x20, #0x1, lsl #12
    40003f38:	eb1502df 	cmp	x22, x21
    40003f3c:	54fffe23 	b.cc	40003f00 <one_time_init+0xff8>  // b.lo, b.ul, b.last
    40003f40:	f148033f 	cmp	x25, #0x200, lsl #12
    40003f44:	d5033a9f 	dsb	ishst
    40003f48:	54000069 	b.ls	40003f54 <one_time_init+0x104c>  // b.plast
    40003f4c:	d50c831f 	tlbi	alle2is
    40003f50:	14000009 	b	40003f74 <one_time_init+0x106c>
    40003f54:	d34cff08 	lsr	x8, x24, #12
    40003f58:	eb55311f 	cmp	x8, x21, lsr #12
    40003f5c:	540000c2 	b.cs	40003f74 <one_time_init+0x106c>  // b.hs, b.nlast
    40003f60:	d34cfea9 	lsr	x9, x21, #12
    40003f64:	d50c8328 	tlbi	vae2is, x8
    40003f68:	91000508 	add	x8, x8, #0x1
    40003f6c:	eb08013f 	cmp	x9, x8
    40003f70:	54ffffa1 	b.ne	40003f64 <one_time_init+0x105c>  // b.any
    40003f74:	d5033b9f 	dsb	ish
    40003f78:	d5033fdf 	isb
    40003f7c:	b4017277 	cbz	x23, 40006dc8 <one_time_init+0x3ec0>
    40003f80:	900000f3 	adrp	x19, 4001f000 <cpus>
    40003f84:	f9413fe8 	ldr	x8, [sp, #632]
    40003f88:	900000e9 	adrp	x9, 4001f000 <cpus>
    40003f8c:	f9400274 	ldr	x20, [x19]
    40003f90:	900000f2 	adrp	x18, 4001f000 <cpus>
    40003f94:	91000252 	add	x18, x18, #0x0
    40003f98:	a90affff 	stp	xzr, xzr, [sp, #168]
    40003f9c:	b900c128 	str	w8, [x9, #192]
    40003fa0:	34000428 	cbz	w8, 40004024 <one_time_init+0x111c>
    40003fa4:	2a1f03eb 	mov	w11, wzr
    40003fa8:	92407d09 	and	x9, x8, #0xffffffff
    40003fac:	9108e3ea 	add	x10, sp, #0x238
    40003fb0:	9000032c 	adrp	x12, 40067000 <callstacks+0x1000>
    40003fb4:	9100018c 	add	x12, x12, #0x0
    40003fb8:	5280030d 	mov	w13, #0x18                  	// #24
    40003fbc:	f000030e 	adrp	x14, 40066000 <callstacks>
    40003fc0:	910001ce 	add	x14, x14, #0x0
    40003fc4:	1400000d 	b	40003ff8 <one_time_init+0x10f0>
    40003fc8:	51000508 	sub	w8, w8, #0x1
    40003fcc:	9bad4910 	umaddl	x16, w8, w13, x18
    40003fd0:	8b0831d1 	add	x17, x14, x8, lsl #12
    40003fd4:	91400631 	add	x17, x17, #0x1, lsl #12
    40003fd8:	f9000611 	str	x17, [x16, #8]
    40003fdc:	b900e3ff 	str	wzr, [sp, #224]
    40003fe0:	b940e3f1 	ldr	w17, [sp, #224]
    40003fe4:	9100214a 	add	x10, x10, #0x8
    40003fe8:	f1000529 	subs	x9, x9, #0x1
    40003fec:	b9001211 	str	w17, [x16, #16]
    40003ff0:	f900020f 	str	x15, [x16]
    40003ff4:	54000160 	b.eq	40004020 <one_time_init+0x1118>  // b.none
    40003ff8:	f940014f 	ldr	x15, [x10]
    40003ffc:	eb1401ff 	cmp	x15, x20
    40004000:	54fffe41 	b.ne	40003fc8 <one_time_init+0x10c0>  // b.any
    40004004:	3707fe2b 	tbnz	w11, #0, 40003fc8 <one_time_init+0x10c0>
    40004008:	f940064b 	ldr	x11, [x18, #8]
    4000400c:	eb0c017f 	cmp	x11, x12
    40004010:	54016ee1 	b.ne	40006dec <one_time_init+0x3ee4>  // b.any
    40004014:	5280002b 	mov	w11, #0x1                   	// #1
    40004018:	aa1203f0 	mov	x16, x18
    4000401c:	17fffff0 	b	40003fdc <one_time_init+0x10d4>
    40004020:	370000ab 	tbnz	w11, #0, 40004034 <one_time_init+0x112c>
    40004024:	b00000c0 	adrp	x0, 4001d000 <arch_mm_init.pa_bits_table+0x1a68>
    40004028:	91142800 	add	x0, x0, #0x50a
    4000402c:	9400272d 	bl	4000dce0 <dlog>
    40004030:	f9000274 	str	x20, [x19]
    40004034:	395553e8 	ldrb	w8, [sp, #1364]
    40004038:	f90113ff 	str	xzr, [sp, #544]
    4000403c:	340000e8 	cbz	w8, 40004058 <one_time_init+0x1150>
    40004040:	f942c7e8 	ldr	x8, [sp, #1416]
    40004044:	f942c3f5 	ldr	x21, [sp, #1408]
    40004048:	8b150114 	add	x20, x8, x21
    4000404c:	3952c3e8 	ldrb	w8, [sp, #1200]
    40004050:	350001e8 	cbnz	w8, 4000408c <one_time_init+0x1184>
    40004054:	14000021 	b	400040d8 <one_time_init+0x11d0>
    40004058:	f9454bf4 	ldr	x20, [sp, #2704]
    4000405c:	b100069f 	cmn	x20, #0x1
    40004060:	aa1403f5 	mov	x21, x20
    40004064:	54000101 	b.ne	40004084 <one_time_init+0x117c>  // b.any
    40004068:	f00000c8 	adrp	x8, 4001f000 <cpus>
    4000406c:	f9408908 	ldr	x8, [x8, #272]
    40004070:	12bffc09 	mov	w9, #0x1fffff              	// #2097151
    40004074:	8b090108 	add	x8, x8, x9
    40004078:	926ba908 	and	x8, x8, #0xffffffffffe00000
    4000407c:	b26d0114 	orr	x20, x8, #0x80000
    40004080:	aa1403f5 	mov	x21, x20
    40004084:	3952c3e8 	ldrb	w8, [sp, #1200]
    40004088:	34000288 	cbz	w8, 400040d8 <one_time_init+0x11d0>
    4000408c:	911223e8 	add	x8, sp, #0x488
    40004090:	9100a113 	add	x19, x8, #0x28
    40004094:	910323e0 	add	x0, sp, #0xc8
    40004098:	d10283a2 	sub	x2, x29, #0xa0
    4000409c:	aa1303e1 	mov	x1, x19
    400040a0:	97fff8c3 	bl	400023ac <cpio_get_file>
    400040a4:	360170a0 	tbz	w0, #0, 40006eb8 <one_time_init+0x3fb0>
    400040a8:	a97623a9 	ldp	x9, x8, [x29, #-160]
    400040ac:	cb090108 	sub	x8, x8, x9
    400040b0:	52800029 	mov	w9, #0x1                   	// #1
    400040b4:	72a10009 	movk	w9, #0x800, lsl #16
    400040b8:	eb09011f 	cmp	x8, x9
    400040bc:	54017082 	b.cs	40006ecc <one_time_init+0x3fc4>  // b.hs, b.nlast
    400040c0:	b0000420 	adrp	x0, 40089000 <dlog_lock_enabled>
    400040c4:	91008000 	add	x0, x0, #0x20
    400040c8:	d10283a2 	sub	x2, x29, #0xa0
    400040cc:	aa1503e1 	mov	x1, x21
    400040d0:	94000bc8 	bl	40006ff0 <copy_to_unmapped>
    400040d4:	36017020 	tbz	w0, #0, 40006ed8 <one_time_init+0x3fd0>
    400040d8:	90000588 	adrp	x8, 400b4000 <other_world+0x1bd0>
    400040dc:	795ae108 	ldrh	w8, [x8, #3440]
    400040e0:	71003d1f 	cmp	w8, #0xf
    400040e4:	54017068 	b.hi	40006ef0 <one_time_init+0x3fe8>  // b.pmore
    400040e8:	11000500 	add	w0, w8, #0x1
    400040ec:	52800101 	mov	w1, #0x8                   	// #8
    400040f0:	940038d7 	bl	4001244c <vm_init>
    400040f4:	b4016fe0 	cbz	x0, 40006ef0 <one_time_init+0x3fe8>
    400040f8:	90000588 	adrp	x8, 400b4000 <other_world+0x1bd0>
    400040fc:	aa0803e9 	mov	x9, x8
    40004100:	795ae108 	ldrh	w8, [x8, #3440]
    40004104:	a907d3f5 	stp	x21, x20, [sp, #120]
    40004108:	11000508 	add	w8, w8, #0x1
    4000410c:	791ae128 	strh	w8, [x9, #3440]
    40004110:	79400008 	ldrh	w8, [x0]
    40004114:	7100051f 	cmp	w8, #0x1
    40004118:	54016f21 	b.ne	40006efc <one_time_init+0x3ff4>  // b.any
    4000411c:	9102600a 	add	x10, x0, #0x98
    40004120:	f9004be0 	str	x0, [sp, #144]
    40004124:	f9003bea 	str	x10, [sp, #112]
    40004128:	52800029 	mov	w9, #0x1                   	// #1
    4000412c:	d50320bf 	sevl
    40004130:	d503205f 	wfe
    40004134:	885ffd48 	ldaxr	w8, [x10]
    40004138:	35ffffc8 	cbnz	w8, 40004130 <one_time_init+0x1228>
    4000413c:	88087d49 	stxr	w8, w9, [x10]
    40004140:	35ffffa8 	cbnz	w8, 40004134 <one_time_init+0x122c>
    40004144:	f94237e8 	ldr	x8, [sp, #1128]
    40004148:	b5000748 	cbnz	x8, 40004230 <one_time_init+0x1328>
    4000414c:	b00000c0 	adrp	x0, 4001d000 <arch_mm_init.pa_bits_table+0x1a68>
    40004150:	9138b000 	add	x0, x0, #0xe2c
    40004154:	940026e3 	bl	4000dce0 <dlog>
    40004158:	b0000428 	adrp	x8, 40089000 <dlog_lock_enabled>
    4000415c:	39404117 	ldrb	w23, [x8, #16]
    40004160:	f9404bea 	ldr	x10, [sp, #144]
    40004164:	110006e8 	add	w8, w23, #0x1
    40004168:	12001d09 	and	w9, w8, #0xff
    4000416c:	7100053f 	cmp	w9, #0x1
    40004170:	54016069 	b.ls	40006d7c <one_time_init+0x3e74>  // b.plast
    40004174:	5284a409 	mov	w9, #0x2520                	// #9504
    40004178:	8b090158 	add	x24, x10, x9
    4000417c:	b0000429 	adrp	x9, 40089000 <dlog_lock_enabled>
    40004180:	39405129 	ldrb	w9, [x9, #20]
    40004184:	92401d0a 	and	x10, x8, #0xff
    40004188:	8b280d48 	add	x8, x10, w8, uxtb #3
    4000418c:	5282000a 	mov	w10, #0x1000                	// #4096
    40004190:	9ac8215b 	lsl	x27, x10, x8
    40004194:	9b097f68 	mul	x8, x27, x9
    40004198:	d368fd09 	lsr	x9, x8, #40
    4000419c:	d28099b4 	mov	x20, #0x4cd                 	// #1229
    400041a0:	f2e03814 	movk	x20, #0x1c0, lsl #48
    400041a4:	f100013f 	cmp	x9, #0x0
    400041a8:	d2c02009 	mov	x9, #0x10000000000         	// #1099511627776
    400041ac:	9a890115 	csel	x21, x8, x9, eq  // eq = none
    400041b0:	b40002f5 	cbz	x21, 4000420c <one_time_init+0x1304>
    400041b4:	f940031a 	ldr	x26, [x24]
    400041b8:	aa1f03f6 	mov	x22, xzr
    400041bc:	900000f3 	adrp	x19, 40020000 <arch_mm_config>
    400041c0:	9100e273 	add	x19, x19, #0x38
    400041c4:	cb1b03fc 	neg	x28, x27
    400041c8:	b00000d9 	adrp	x25, 4001d000 <arch_mm_init.pa_bits_table+0x1a68>
    400041cc:	91312b39 	add	x25, x25, #0xc4a
    400041d0:	aa1603e0 	mov	x0, x22
    400041d4:	aa1503e1 	mov	x1, x21
    400041d8:	aa1603e2 	mov	x2, x22
    400041dc:	aa1403e3 	mov	x3, x20
    400041e0:	aa1a03e4 	mov	x4, x26
    400041e4:	2a1703e5 	mov	w5, w23
    400041e8:	2a1f03e6 	mov	w6, wzr
    400041ec:	aa1303e7 	mov	x7, x19
    400041f0:	9400358e 	bl	40011828 <mm_map_level>
    400041f4:	36016900 	tbz	w0, #0, 40006f14 <one_time_init+0x400c>
    400041f8:	8b1b02c8 	add	x8, x22, x27
    400041fc:	8a1c0116 	and	x22, x8, x28
    40004200:	9140075a 	add	x26, x26, #0x1, lsl #12
    40004204:	eb1502df 	cmp	x22, x21
    40004208:	54fffe43 	b.cc	400041d0 <one_time_init+0x12c8>  // b.lo, b.ul, b.last
    4000420c:	900000e5 	adrp	x5, 40020000 <arch_mm_config>
    40004210:	9100e0a5 	add	x5, x5, #0x38
    40004214:	aa1803e0 	mov	x0, x24
    40004218:	aa1f03e1 	mov	x1, xzr
    4000421c:	d2c02002 	mov	x2, #0x10000000000         	// #1099511627776
    40004220:	aa1403e3 	mov	x3, x20
    40004224:	52800024 	mov	w4, #0x1                   	// #1
    40004228:	940034fc 	bl	40011618 <mm_ptable_identity_map>
    4000422c:	360157a0 	tbz	w0, #0, 40006d20 <one_time_init+0x3e18>
    40004230:	f941e3e8 	ldr	x8, [sp, #960]
    40004234:	b4000868 	cbz	x8, 40004340 <one_time_init+0x1438>
    40004238:	f9404be9 	ldr	x9, [sp, #144]
    4000423c:	5284a408 	mov	w8, #0x2520                	// #9504
    40004240:	aa1f03f3 	mov	x19, xzr
    40004244:	900000f9 	adrp	x25, 40020000 <arch_mm_config>
    40004248:	9100e339 	add	x25, x25, #0x38
    4000424c:	8b080128 	add	x8, x9, x8
    40004250:	f90053e8 	str	x8, [sp, #160]
    40004254:	b0000428 	adrp	x8, 40089000 <dlog_lock_enabled>
    40004258:	3940411a 	ldrb	w26, [x8, #16]
    4000425c:	11000748 	add	w8, w26, #0x1
    40004260:	12001d09 	and	w9, w8, #0xff
    40004264:	7100053f 	cmp	w9, #0x1
    40004268:	540158a9 	b.ls	40006d7c <one_time_init+0x3e74>  // b.plast
    4000426c:	9108e3e9 	add	x9, sp, #0x238
    40004270:	8b131129 	add	x9, x9, x19, lsl #4
    40004274:	92401d0a 	and	x10, x8, #0xff
    40004278:	a944f13b 	ldp	x27, x28, [x9, #72]
    4000427c:	b0000429 	adrp	x9, 40089000 <dlog_lock_enabled>
    40004280:	39405129 	ldrb	w9, [x9, #20]
    40004284:	8b280d48 	add	x8, x10, w8, uxtb #3
    40004288:	5282000a 	mov	w10, #0x1000                	// #4096
    4000428c:	9ac82158 	lsl	x24, x10, x8
    40004290:	913fff8a 	add	x10, x28, #0xfff
    40004294:	9b097f09 	mul	x9, x24, x9
    40004298:	9274cd4a 	and	x10, x10, #0xfffffffffffff000
    4000429c:	eb09015f 	cmp	x10, x9
    400042a0:	92748f74 	and	x20, x27, #0xfffffffff000
    400042a4:	9a8a8135 	csel	x21, x9, x10, hi  // hi = pmore
    400042a8:	eb15029f 	cmp	x20, x21
    400042ac:	54000302 	b.cs	4000430c <one_time_init+0x1404>  // b.hs, b.nlast
    400042b0:	f94053e9 	ldr	x9, [sp, #160]
    400042b4:	91003108 	add	x8, x8, #0xc
    400042b8:	9ac82688 	lsr	x8, x20, x8
    400042bc:	92402108 	and	x8, x8, #0x1ff
    400042c0:	f9400129 	ldr	x9, [x9]
    400042c4:	8b083136 	add	x22, x9, x8, lsl #12
    400042c8:	cb1803f7 	neg	x23, x24
    400042cc:	d2809fa3 	mov	x3, #0x4fd                 	// #1277
    400042d0:	aa1403e0 	mov	x0, x20
    400042d4:	aa1503e1 	mov	x1, x21
    400042d8:	aa1403e2 	mov	x2, x20
    400042dc:	f2e03003 	movk	x3, #0x180, lsl #48
    400042e0:	aa1603e4 	mov	x4, x22
    400042e4:	2a1a03e5 	mov	w5, w26
    400042e8:	2a1f03e6 	mov	w6, wzr
    400042ec:	aa1903e7 	mov	x7, x25
    400042f0:	9400354e 	bl	40011828 <mm_map_level>
    400042f4:	36014f40 	tbz	w0, #0, 40006cdc <one_time_init+0x3dd4>
    400042f8:	8b180288 	add	x8, x20, x24
    400042fc:	8a170114 	and	x20, x8, x23
    40004300:	914006d6 	add	x22, x22, #0x1, lsl #12
    40004304:	eb15029f 	cmp	x20, x21
    40004308:	54fffe23 	b.cc	400042cc <one_time_init+0x13c4>  // b.lo, b.ul, b.last
    4000430c:	f94053e0 	ldr	x0, [sp, #160]
    40004310:	d2809fa3 	mov	x3, #0x4fd                 	// #1277
    40004314:	aa1b03e1 	mov	x1, x27
    40004318:	aa1c03e2 	mov	x2, x28
    4000431c:	f2e03003 	movk	x3, #0x180, lsl #48
    40004320:	52800024 	mov	w4, #0x1                   	// #1
    40004324:	aa1903e5 	mov	x5, x25
    40004328:	940034bc 	bl	40011618 <mm_ptable_identity_map>
    4000432c:	36014fa0 	tbz	w0, #0, 40006d20 <one_time_init+0x3e18>
    40004330:	f941e3e8 	ldr	x8, [sp, #960]
    40004334:	91000673 	add	x19, x19, #0x1
    40004338:	eb08027f 	cmp	x19, x8
    4000433c:	54fff8c3 	b.cc	40004254 <one_time_init+0x134c>  // b.lo, b.ul, b.last
    40004340:	f94237e8 	ldr	x8, [sp, #1128]
    40004344:	b4000868 	cbz	x8, 40004450 <one_time_init+0x1548>
    40004348:	f9404be9 	ldr	x9, [sp, #144]
    4000434c:	5284a408 	mov	w8, #0x2520                	// #9504
    40004350:	d28099b7 	mov	x23, #0x4cd                 	// #1229
    40004354:	f2e03817 	movk	x23, #0x1c0, lsl #48
    40004358:	900000fa 	adrp	x26, 40020000 <arch_mm_config>
    4000435c:	9100e35a 	add	x26, x26, #0x38
    40004360:	8b080128 	add	x8, x9, x8
    40004364:	aa1f03f8 	mov	x24, xzr
    40004368:	f9004fe8 	str	x8, [sp, #152]
    4000436c:	b0000428 	adrp	x8, 40089000 <dlog_lock_enabled>
    40004370:	3940411b 	ldrb	w27, [x8, #16]
    40004374:	11000768 	add	w8, w27, #0x1
    40004378:	12001d09 	and	w9, w8, #0xff
    4000437c:	7100053f 	cmp	w9, #0x1
    40004380:	54014fe9 	b.ls	40006d7c <one_time_init+0x3e74>  // b.plast
    40004384:	9108e3e9 	add	x9, sp, #0x238
    40004388:	8b181129 	add	x9, x9, x24, lsl #4
    4000438c:	92401d0a 	and	x10, x8, #0xff
    40004390:	a9592d3c 	ldp	x28, x11, [x9, #400]
    40004394:	b0000429 	adrp	x9, 40089000 <dlog_lock_enabled>
    40004398:	39405129 	ldrb	w9, [x9, #20]
    4000439c:	8b280d48 	add	x8, x10, w8, uxtb #3
    400043a0:	5282000a 	mov	w10, #0x1000                	// #4096
    400043a4:	9ac82159 	lsl	x25, x10, x8
    400043a8:	913ffd6a 	add	x10, x11, #0xfff
    400043ac:	9b097f29 	mul	x9, x25, x9
    400043b0:	9274cd4a 	and	x10, x10, #0xfffffffffffff000
    400043b4:	eb09015f 	cmp	x10, x9
    400043b8:	92748f95 	and	x21, x28, #0xfffffffff000
    400043bc:	9a8a8136 	csel	x22, x9, x10, hi  // hi = pmore
    400043c0:	eb1602bf 	cmp	x21, x22
    400043c4:	f90053eb 	str	x11, [sp, #160]
    400043c8:	540002e2 	b.cs	40004424 <one_time_init+0x151c>  // b.hs, b.nlast
    400043cc:	f9404fe9 	ldr	x9, [sp, #152]
    400043d0:	91003108 	add	x8, x8, #0xc
    400043d4:	9ac826a8 	lsr	x8, x21, x8
    400043d8:	92402108 	and	x8, x8, #0x1ff
    400043dc:	f9400129 	ldr	x9, [x9]
    400043e0:	8b083133 	add	x19, x9, x8, lsl #12
    400043e4:	cb1903f4 	neg	x20, x25
    400043e8:	aa1503e0 	mov	x0, x21
    400043ec:	aa1603e1 	mov	x1, x22
    400043f0:	aa1503e2 	mov	x2, x21
    400043f4:	aa1703e3 	mov	x3, x23
    400043f8:	aa1303e4 	mov	x4, x19
    400043fc:	2a1b03e5 	mov	w5, w27
    40004400:	2a1f03e6 	mov	w6, wzr
    40004404:	aa1a03e7 	mov	x7, x26
    40004408:	94003508 	bl	40011828 <mm_map_level>
    4000440c:	36014740 	tbz	w0, #0, 40006cf4 <one_time_init+0x3dec>
    40004410:	8b1902a8 	add	x8, x21, x25
    40004414:	8a140115 	and	x21, x8, x20
    40004418:	91400673 	add	x19, x19, #0x1, lsl #12
    4000441c:	eb1602bf 	cmp	x21, x22
    40004420:	54fffe43 	b.cc	400043e8 <one_time_init+0x14e0>  // b.lo, b.ul, b.last
    40004424:	a9498be0 	ldp	x0, x2, [sp, #152]
    40004428:	aa1c03e1 	mov	x1, x28
    4000442c:	aa1703e3 	mov	x3, x23
    40004430:	52800024 	mov	w4, #0x1                   	// #1
    40004434:	aa1a03e5 	mov	x5, x26
    40004438:	94003478 	bl	40011618 <mm_ptable_identity_map>
    4000443c:	36014720 	tbz	w0, #0, 40006d20 <one_time_init+0x3e18>
    40004440:	f94237e8 	ldr	x8, [sp, #1128]
    40004444:	91000718 	add	x24, x24, #0x1
    40004448:	eb08031f 	cmp	x24, x8
    4000444c:	54fff903 	b.cc	4000436c <one_time_init+0x1464>  // b.lo, b.ul, b.last
    40004450:	f9404bf4 	ldr	x20, [sp, #144]
    40004454:	911223e8 	add	x8, sp, #0x488
    40004458:	91012101 	add	x1, x8, #0x48
    4000445c:	91005280 	add	x0, x20, #0x14
    40004460:	52801082 	mov	w2, #0x84                  	// #132
    40004464:	94002764 	bl	4000e1f4 <memcpy>
    40004468:	b94563e8 	ldr	w8, [sp, #1376]
    4000446c:	90000593 	adrp	x19, 400b4000 <other_world+0x1bd0>
    40004470:	b9455fe9 	ldr	w9, [sp, #1372]
    40004474:	b9456bea 	ldr	w10, [sp, #1384]
    40004478:	b94567eb 	ldr	w11, [sp, #1380]
    4000447c:	2901aa8b 	stp	w11, w10, [x20, #12]
    40004480:	2900a289 	stp	w9, w8, [x20, #4]
    40004484:	395553e8 	ldrb	w8, [sp, #1364]
    40004488:	34000548 	cbz	w8, 40004530 <one_time_init+0x1628>
    4000448c:	395663e8 	ldrb	w8, [sp, #1432]
    40004490:	34000248 	cbz	w8, 400044d8 <one_time_init+0x15d0>
    40004494:	f942dbe8 	ldr	x8, [sp, #1456]
    40004498:	b0000421 	adrp	x1, 40089000 <dlog_lock_enabled>
    4000449c:	91008021 	add	x1, x1, #0x20
    400044a0:	f942d7e9 	ldr	x9, [sp, #1448]
    400044a4:	900000e6 	adrp	x6, 40020000 <arch_mm_config>
    400044a8:	9100e0c6 	add	x6, x6, #0x38
    400044ac:	d10283a0 	sub	x0, x29, #0xa0
    400044b0:	f9400103 	ldr	x3, [x8]
    400044b4:	f9400124 	ldr	x4, [x9]
    400044b8:	b9400905 	ldr	w5, [x8, #8]
    400044bc:	aa1403e2 	mov	x2, x20
    400044c0:	94000c3a 	bl	400075a8 <api_vm_configure_pages>
    400044c4:	f85603a8 	ldur	x8, [x29, #-160]
    400044c8:	52800c29 	mov	w9, #0x61                  	// #97
    400044cc:	72b08009 	movk	w9, #0x8400, lsl #16
    400044d0:	eb09011f 	cmp	x8, x9
    400044d4:	540151c1 	b.ne	40006f0c <one_time_init+0x4004>  // b.any
    400044d8:	794b2be9 	ldrh	w9, [sp, #1428]
    400044dc:	52851f48 	mov	w8, #0x28fa                	// #10490
    400044e0:	78286a89 	strh	w9, [x20, x8]
    400044e4:	f946be68 	ldr	x8, [x19, #3448]
    400044e8:	b40000e8 	cbz	x8, 40004504 <one_time_init+0x15fc>
    400044ec:	52851f4a 	mov	w10, #0x28fa                	// #10490
    400044f0:	786a690a 	ldrh	w10, [x8, x10]
    400044f4:	6b09015f 	cmp	w10, w9
    400044f8:	540000a2 	b.cs	4000450c <one_time_init+0x1604>  // b.hs, b.nlast
    400044fc:	f906be74 	str	x20, [x19, #3448]
    40004500:	1400000b 	b	4000452c <one_time_init+0x1624>
    40004504:	f906be74 	str	x20, [x19, #3448]
    40004508:	1400000a 	b	40004530 <one_time_init+0x1628>
    4000450c:	52851f4b 	mov	w11, #0x28fa                	// #10490
    40004510:	aa0803ea 	mov	x10, x8
    40004514:	f9548108 	ldr	x8, [x8, #10496]
    40004518:	b4000088 	cbz	x8, 40004528 <one_time_init+0x1620>
    4000451c:	786b690c 	ldrh	w12, [x8, x11]
    40004520:	6b09019f 	cmp	w12, w9
    40004524:	54ffff62 	b.cs	40004510 <one_time_init+0x1608>  // b.hs, b.nlast
    40004528:	f9148154 	str	x20, [x10, #10496]
    4000452c:	f9148288 	str	x8, [x20, #10496]
    40004530:	f9548e88 	ldr	x8, [x20, #10520]
    40004534:	52800749 	mov	w9, #0x3a                  	// #58
    40004538:	aa090109 	orr	x9, x8, x9
    4000453c:	f9148e89 	str	x9, [x20, #10520]
    40004540:	79400289 	ldrh	w9, [x20]
    40004544:	7100053f 	cmp	w9, #0x1
    40004548:	54000060 	b.eq	40004554 <one_time_init+0x164c>  // b.none
    4000454c:	b2401908 	orr	x8, x8, #0x7f
    40004550:	f9148e88 	str	x8, [x20, #10520]
    40004554:	b0000428 	adrp	x8, 40089000 <dlog_lock_enabled>
    40004558:	3940411a 	ldrb	w26, [x8, #16]
    4000455c:	11000748 	add	w8, w26, #0x1
    40004560:	12001d09 	and	w9, w8, #0xff
    40004564:	7100053f 	cmp	w9, #0x1
    40004568:	540140a9 	b.ls	40006d7c <one_time_init+0x3e74>  // b.plast
    4000456c:	f9404bea 	ldr	x10, [sp, #144]
    40004570:	5284a409 	mov	w9, #0x2520                	// #9504
    40004574:	8b090157 	add	x23, x10, x9
    40004578:	b0000429 	adrp	x9, 40089000 <dlog_lock_enabled>
    4000457c:	39405129 	ldrb	w9, [x9, #20]
    40004580:	92401d0a 	and	x10, x8, #0xff
    40004584:	8b280d48 	add	x8, x10, w8, uxtb #3
    40004588:	5282000a 	mov	w10, #0x1000                	// #4096
    4000458c:	9ac82158 	lsl	x24, x10, x8
    40004590:	9b097f0a 	mul	x10, x24, x9
    40004594:	f00000c9 	adrp	x9, 4001f000 <cpus>
    40004598:	f9406d29 	ldr	x9, [x9, #216]
    4000459c:	913ffd29 	add	x9, x9, #0xfff
    400045a0:	9274cd2b 	and	x11, x9, #0xfffffffffffff000
    400045a4:	f00000c9 	adrp	x9, 4001f000 <cpus>
    400045a8:	f9406929 	ldr	x9, [x9, #208]
    400045ac:	eb0b015f 	cmp	x10, x11
    400045b0:	d280879c 	mov	x28, #0x43c                 	// #1084
    400045b4:	f2e0281c 	movk	x28, #0x140, lsl #48
    400045b8:	9a8b3154 	csel	x20, x10, x11, cc  // cc = lo, ul, last
    400045bc:	92748d35 	and	x21, x9, #0xfffffffff000
    400045c0:	eb15029f 	cmp	x20, x21
    400045c4:	54000349 	b.ls	4000462c <one_time_init+0x1724>  // b.plast
    400045c8:	d34cbd29 	ubfx	x9, x9, #12, #36
    400045cc:	9ac82528 	lsr	x8, x9, x8
    400045d0:	f94002e9 	ldr	x9, [x23]
    400045d4:	92402108 	and	x8, x8, #0x1ff
    400045d8:	8b083136 	add	x22, x9, x8, lsl #12
    400045dc:	900000f3 	adrp	x19, 40020000 <arch_mm_config>
    400045e0:	9100e273 	add	x19, x19, #0x38
    400045e4:	cb1803fb 	neg	x27, x24
    400045e8:	b00000d9 	adrp	x25, 4001d000 <arch_mm_init.pa_bits_table+0x1a68>
    400045ec:	91321739 	add	x25, x25, #0xc85
    400045f0:	aa1503e0 	mov	x0, x21
    400045f4:	aa1403e1 	mov	x1, x20
    400045f8:	aa1503e2 	mov	x2, x21
    400045fc:	aa1c03e3 	mov	x3, x28
    40004600:	aa1603e4 	mov	x4, x22
    40004604:	2a1a03e5 	mov	w5, w26
    40004608:	52800046 	mov	w6, #0x2                   	// #2
    4000460c:	aa1303e7 	mov	x7, x19
    40004610:	94003486 	bl	40011828 <mm_map_level>
    40004614:	36014800 	tbz	w0, #0, 40006f14 <one_time_init+0x400c>
    40004618:	8b1802a8 	add	x8, x21, x24
    4000461c:	8a1b0115 	and	x21, x8, x27
    40004620:	914006d6 	add	x22, x22, #0x1, lsl #12
    40004624:	eb1402bf 	cmp	x21, x20
    40004628:	54fffe43 	b.cc	400045f0 <one_time_init+0x16e8>  // b.lo, b.ul, b.last
    4000462c:	f00000c1 	adrp	x1, 4001f000 <cpus>
    40004630:	f00000c2 	adrp	x2, 4001f000 <cpus>
    40004634:	f9406821 	ldr	x1, [x1, #208]
    40004638:	f9406c42 	ldr	x2, [x2, #216]
    4000463c:	900000e5 	adrp	x5, 40020000 <arch_mm_config>
    40004640:	9100e0a5 	add	x5, x5, #0x38
    40004644:	aa1703e0 	mov	x0, x23
    40004648:	aa1c03e3 	mov	x3, x28
    4000464c:	52800064 	mov	w4, #0x3                   	// #3
    40004650:	940033f2 	bl	40011618 <mm_ptable_identity_map>
    40004654:	36013660 	tbz	w0, #0, 40006d20 <one_time_init+0x3e18>
    40004658:	b0000428 	adrp	x8, 40089000 <dlog_lock_enabled>
    4000465c:	3940411a 	ldrb	w26, [x8, #16]
    40004660:	11000748 	add	w8, w26, #0x1
    40004664:	12001d09 	and	w9, w8, #0xff
    40004668:	7100053f 	cmp	w9, #0x1
    4000466c:	54013889 	b.ls	40006d7c <one_time_init+0x3e74>  // b.plast
    40004670:	92401d0a 	and	x10, x8, #0xff
    40004674:	8b280d48 	add	x8, x10, w8, uxtb #3
    40004678:	5282000a 	mov	w10, #0x1000                	// #4096
    4000467c:	b0000429 	adrp	x9, 40089000 <dlog_lock_enabled>
    40004680:	39405129 	ldrb	w9, [x9, #20]
    40004684:	9ac82158 	lsl	x24, x10, x8
    40004688:	f00000ca 	adrp	x10, 4001f000 <cpus>
    4000468c:	f940754a 	ldr	x10, [x10, #232]
    40004690:	9b097f0b 	mul	x11, x24, x9
    40004694:	913ffd49 	add	x9, x10, #0xfff
    40004698:	9274cd2a 	and	x10, x9, #0xfffffffffffff000
    4000469c:	f00000c9 	adrp	x9, 4001f000 <cpus>
    400046a0:	f9407129 	ldr	x9, [x9, #224]
    400046a4:	eb0a017f 	cmp	x11, x10
    400046a8:	9a8a3174 	csel	x20, x11, x10, cc  // cc = lo, ul, last
    400046ac:	92748d35 	and	x21, x9, #0xfffffffff000
    400046b0:	eb15029f 	cmp	x20, x21
    400046b4:	54000349 	b.ls	4000471c <one_time_init+0x1814>  // b.plast
    400046b8:	d34cbd29 	ubfx	x9, x9, #12, #36
    400046bc:	9ac82528 	lsr	x8, x9, x8
    400046c0:	f94002e9 	ldr	x9, [x23]
    400046c4:	92402108 	and	x8, x8, #0x1ff
    400046c8:	8b083136 	add	x22, x9, x8, lsl #12
    400046cc:	900000f3 	adrp	x19, 40020000 <arch_mm_config>
    400046d0:	9100e273 	add	x19, x19, #0x38
    400046d4:	cb1803fb 	neg	x27, x24
    400046d8:	b00000d9 	adrp	x25, 4001d000 <arch_mm_init.pa_bits_table+0x1a68>
    400046dc:	91321739 	add	x25, x25, #0xc85
    400046e0:	aa1503e0 	mov	x0, x21
    400046e4:	aa1403e1 	mov	x1, x20
    400046e8:	aa1503e2 	mov	x2, x21
    400046ec:	aa1c03e3 	mov	x3, x28
    400046f0:	aa1603e4 	mov	x4, x22
    400046f4:	2a1a03e5 	mov	w5, w26
    400046f8:	52800046 	mov	w6, #0x2                   	// #2
    400046fc:	aa1303e7 	mov	x7, x19
    40004700:	9400344a 	bl	40011828 <mm_map_level>
    40004704:	36014080 	tbz	w0, #0, 40006f14 <one_time_init+0x400c>
    40004708:	8b1802a8 	add	x8, x21, x24
    4000470c:	8a1b0115 	and	x21, x8, x27
    40004710:	914006d6 	add	x22, x22, #0x1, lsl #12
    40004714:	eb1402bf 	cmp	x21, x20
    40004718:	54fffe43 	b.cc	400046e0 <one_time_init+0x17d8>  // b.lo, b.ul, b.last
    4000471c:	f00000c1 	adrp	x1, 4001f000 <cpus>
    40004720:	f00000c2 	adrp	x2, 4001f000 <cpus>
    40004724:	f9407021 	ldr	x1, [x1, #224]
    40004728:	f9407442 	ldr	x2, [x2, #232]
    4000472c:	900000e5 	adrp	x5, 40020000 <arch_mm_config>
    40004730:	9100e0a5 	add	x5, x5, #0x38
    40004734:	aa1703e0 	mov	x0, x23
    40004738:	aa1c03e3 	mov	x3, x28
    4000473c:	52800064 	mov	w4, #0x3                   	// #3
    40004740:	940033b6 	bl	40011618 <mm_ptable_identity_map>
    40004744:	36012ee0 	tbz	w0, #0, 40006d20 <one_time_init+0x3e18>
    40004748:	b0000428 	adrp	x8, 40089000 <dlog_lock_enabled>
    4000474c:	3940411a 	ldrb	w26, [x8, #16]
    40004750:	11000748 	add	w8, w26, #0x1
    40004754:	12001d09 	and	w9, w8, #0xff
    40004758:	7100053f 	cmp	w9, #0x1
    4000475c:	54013109 	b.ls	40006d7c <one_time_init+0x3e74>  // b.plast
    40004760:	92401d0a 	and	x10, x8, #0xff
    40004764:	8b280d48 	add	x8, x10, w8, uxtb #3
    40004768:	5282000a 	mov	w10, #0x1000                	// #4096
    4000476c:	b0000429 	adrp	x9, 40089000 <dlog_lock_enabled>
    40004770:	39405129 	ldrb	w9, [x9, #20]
    40004774:	9ac82158 	lsl	x24, x10, x8
    40004778:	f00000ca 	adrp	x10, 4001f000 <cpus>
    4000477c:	f9407d4a 	ldr	x10, [x10, #248]
    40004780:	9b097f0b 	mul	x11, x24, x9
    40004784:	913ffd49 	add	x9, x10, #0xfff
    40004788:	9274cd2a 	and	x10, x9, #0xfffffffffffff000
    4000478c:	f00000c9 	adrp	x9, 4001f000 <cpus>
    40004790:	f9407929 	ldr	x9, [x9, #240]
    40004794:	eb0a017f 	cmp	x11, x10
    40004798:	9a8a3174 	csel	x20, x11, x10, cc  // cc = lo, ul, last
    4000479c:	92748d35 	and	x21, x9, #0xfffffffff000
    400047a0:	eb15029f 	cmp	x20, x21
    400047a4:	54000349 	b.ls	4000480c <one_time_init+0x1904>  // b.plast
    400047a8:	d34cbd29 	ubfx	x9, x9, #12, #36
    400047ac:	9ac82528 	lsr	x8, x9, x8
    400047b0:	f94002e9 	ldr	x9, [x23]
    400047b4:	92402108 	and	x8, x8, #0x1ff
    400047b8:	8b083136 	add	x22, x9, x8, lsl #12
    400047bc:	900000f3 	adrp	x19, 40020000 <arch_mm_config>
    400047c0:	9100e273 	add	x19, x19, #0x38
    400047c4:	cb1803fb 	neg	x27, x24
    400047c8:	b00000d9 	adrp	x25, 4001d000 <arch_mm_init.pa_bits_table+0x1a68>
    400047cc:	91321739 	add	x25, x25, #0xc85
    400047d0:	aa1503e0 	mov	x0, x21
    400047d4:	aa1403e1 	mov	x1, x20
    400047d8:	aa1503e2 	mov	x2, x21
    400047dc:	aa1c03e3 	mov	x3, x28
    400047e0:	aa1603e4 	mov	x4, x22
    400047e4:	2a1a03e5 	mov	w5, w26
    400047e8:	52800046 	mov	w6, #0x2                   	// #2
    400047ec:	aa1303e7 	mov	x7, x19
    400047f0:	9400340e 	bl	40011828 <mm_map_level>
    400047f4:	36013900 	tbz	w0, #0, 40006f14 <one_time_init+0x400c>
    400047f8:	8b1802a8 	add	x8, x21, x24
    400047fc:	8a1b0115 	and	x21, x8, x27
    40004800:	914006d6 	add	x22, x22, #0x1, lsl #12
    40004804:	eb1402bf 	cmp	x21, x20
    40004808:	54fffe43 	b.cc	400047d0 <one_time_init+0x18c8>  // b.lo, b.ul, b.last
    4000480c:	f00000c1 	adrp	x1, 4001f000 <cpus>
    40004810:	f00000c2 	adrp	x2, 4001f000 <cpus>
    40004814:	f9407821 	ldr	x1, [x1, #240]
    40004818:	f9407c42 	ldr	x2, [x2, #248]
    4000481c:	900000e5 	adrp	x5, 40020000 <arch_mm_config>
    40004820:	9100e0a5 	add	x5, x5, #0x38
    40004824:	aa1703e0 	mov	x0, x23
    40004828:	aa1c03e3 	mov	x3, x28
    4000482c:	52800064 	mov	w4, #0x3                   	// #3
    40004830:	9400337a 	bl	40011618 <mm_ptable_identity_map>
    40004834:	36012760 	tbz	w0, #0, 40006d20 <one_time_init+0x3e18>
    40004838:	f9404bf4 	ldr	x20, [sp, #144]
    4000483c:	b00000c0 	adrp	x0, 4001d000 <arch_mm_init.pa_bits_table+0x1a68>
    40004840:	91038000 	add	x0, x0, #0xe0
    40004844:	79413a81 	ldrh	w1, [x20, #156]
    40004848:	f9403fe2 	ldr	x2, [sp, #120]
    4000484c:	94002525 	bl	4000dce0 <dlog>
    40004850:	79413a88 	ldrh	w8, [x20, #156]
    40004854:	d280d09b 	mov	x27, #0x684                 	// #1668
    40004858:	f2e0081b 	movk	x27, #0x40, lsl #48
    4000485c:	f94043eb 	ldr	x11, [sp, #128]
    40004860:	f00000d3 	adrp	x19, 4001f000 <cpus>
    40004864:	91000273 	add	x19, x19, #0x0
    40004868:	34012d28 	cbz	w8, 40006e0c <one_time_init+0x3f04>
    4000486c:	91028288 	add	x8, x20, #0xa0
    40004870:	5280002a 	mov	w10, #0x1                   	// #1
    40004874:	d50320bf 	sevl
    40004878:	d503205f 	wfe
    4000487c:	885ffd09 	ldaxr	w9, [x8]
    40004880:	35ffffc9 	cbnz	w9, 40004878 <one_time_init+0x1970>
    40004884:	88097d0a 	stxr	w9, w10, [x8]
    40004888:	35ffffa9 	cbnz	w9, 4000487c <one_time_init+0x1974>
    4000488c:	f94243e9 	ldr	x9, [sp, #1152]
    40004890:	5280002a 	mov	w10, #0x1                   	// #1
    40004894:	52900000 	mov	w0, #0x8000                	// #32768
    40004898:	52800101 	mov	w1, #0x8                   	// #8
    4000489c:	f900de8b 	str	x11, [x20, #440]
    400048a0:	b900a68a 	str	w10, [x20, #164]
    400048a4:	f9006289 	str	x9, [x20, #192]
    400048a8:	889ffd1f 	stlr	wzr, [x8]
    400048ac:	91026288 	add	x8, x20, #0x98
    400048b0:	889ffd1f 	stlr	wzr, [x8]
    400048b4:	940036e6 	bl	4001244c <vm_init>
    400048b8:	b4013380 	cbz	x0, 40006f28 <one_time_init+0x4020>
    400048bc:	79413808 	ldrh	w8, [x0, #156]
    400048c0:	34012a68 	cbz	w8, 40006e0c <one_time_init+0x3f04>
    400048c4:	7100051f 	cmp	w8, #0x1
    400048c8:	f9005413 	str	x19, [x0, #168]
    400048cc:	54012a00 	b.eq	40006e0c <one_time_init+0x3f04>  // b.none
    400048d0:	f00000c9 	adrp	x9, 4001f000 <cpus>
    400048d4:	91006129 	add	x9, x9, #0x18
    400048d8:	f9029c09 	str	x9, [x0, #1336]
    400048dc:	7100091f 	cmp	w8, #0x2
    400048e0:	54012969 	b.ls	40006e0c <one_time_init+0x3f04>  // b.plast
    400048e4:	f00000c9 	adrp	x9, 4001f000 <cpus>
    400048e8:	9100c129 	add	x9, x9, #0x30
    400048ec:	f904e409 	str	x9, [x0, #2504]
    400048f0:	71000d1f 	cmp	w8, #0x3
    400048f4:	540128c0 	b.eq	40006e0c <one_time_init+0x3f04>  // b.none
    400048f8:	f00000c9 	adrp	x9, 4001f000 <cpus>
    400048fc:	91012129 	add	x9, x9, #0x48
    40004900:	f9072c09 	str	x9, [x0, #3672]
    40004904:	7100111f 	cmp	w8, #0x4
    40004908:	54012829 	b.ls	40006e0c <one_time_init+0x3f04>  // b.plast
    4000490c:	f00000c9 	adrp	x9, 4001f000 <cpus>
    40004910:	91018129 	add	x9, x9, #0x60
    40004914:	f9097409 	str	x9, [x0, #4840]
    40004918:	7100151f 	cmp	w8, #0x5
    4000491c:	54012780 	b.eq	40006e0c <one_time_init+0x3f04>  // b.none
    40004920:	f00000c9 	adrp	x9, 4001f000 <cpus>
    40004924:	9101e129 	add	x9, x9, #0x78
    40004928:	f90bbc09 	str	x9, [x0, #6008]
    4000492c:	7100191f 	cmp	w8, #0x6
    40004930:	540126e9 	b.ls	40006e0c <one_time_init+0x3f04>  // b.plast
    40004934:	f00000c9 	adrp	x9, 4001f000 <cpus>
    40004938:	91024129 	add	x9, x9, #0x90
    4000493c:	f90e0409 	str	x9, [x0, #7176]
    40004940:	71001d1f 	cmp	w8, #0x7
    40004944:	54012640 	b.eq	40006e0c <one_time_init+0x3f04>  // b.none
    40004948:	f94047e2 	ldr	x2, [sp, #136]
    4000494c:	f00000c8 	adrp	x8, 4001f000 <cpus>
    40004950:	9102a108 	add	x8, x8, #0xa8
    40004954:	f9104c08 	str	x8, [x0, #8344]
    40004958:	52802801 	mov	w1, #0x140                 	// #320
    4000495c:	91401be0 	add	x0, sp, #0x6, lsl #12
    40004960:	911f4000 	add	x0, x0, #0x7d0
    40004964:	aa0103e3 	mov	x3, x1
    40004968:	94002520 	bl	4000dde8 <memcpy_s>
    4000496c:	f941e3e8 	ldr	x8, [sp, #960]
    40004970:	b40004e8 	cbz	x8, 40004a0c <one_time_init+0x1b04>
    40004974:	aa1f03e9 	mov	x9, xzr
    40004978:	f100050a 	subs	x10, x8, #0x1
    4000497c:	54000340 	b.eq	400049e4 <one_time_init+0x1adc>  // b.none
    40004980:	91401beb 	add	x11, sp, #0x6, lsl #12
    40004984:	911f416b 	add	x11, x11, #0x7d0
    40004988:	9100216c 	add	x12, x11, #0x8
    4000498c:	eb4af3ff 	cmp	xzr, x10, lsr #60
    40004990:	d37ced4a 	lsl	x10, x10, #4
    40004994:	1a9f07eb 	cset	w11, ne  // ne = any
    40004998:	aa2c03ec 	mvn	x12, x12
    4000499c:	eb0c015f 	cmp	x10, x12
    400049a0:	54000228 	b.hi	400049e4 <one_time_init+0x1adc>  // b.pmore
    400049a4:	3700020b 	tbnz	w11, #0, 400049e4 <one_time_init+0x1adc>
    400049a8:	91401bea 	add	x10, sp, #0x6, lsl #12
    400049ac:	927ff909 	and	x9, x8, #0xfffffffffffffffe
    400049b0:	911f414a 	add	x10, x10, #0x7d0
    400049b4:	9100614a 	add	x10, x10, #0x18
    400049b8:	aa0903eb 	mov	x11, x9
    400049bc:	f85f014c 	ldur	x12, [x10, #-16]
    400049c0:	9274cd8c 	and	x12, x12, #0xfffffffffffff000
    400049c4:	f940014d 	ldr	x13, [x10]
    400049c8:	9274cdad 	and	x13, x13, #0xfffffffffffff000
    400049cc:	f81f014c 	stur	x12, [x10, #-16]
    400049d0:	f100096b 	subs	x11, x11, #0x2
    400049d4:	f802054d 	str	x13, [x10], #32
    400049d8:	54ffff21 	b.ne	400049bc <one_time_init+0x1ab4>  // b.any
    400049dc:	eb09011f 	cmp	x8, x9
    400049e0:	54000160 	b.eq	40004a0c <one_time_init+0x1b04>  // b.none
    400049e4:	91401bea 	add	x10, sp, #0x6, lsl #12
    400049e8:	911f414a 	add	x10, x10, #0x7d0
    400049ec:	8b09114a 	add	x10, x10, x9, lsl #4
    400049f0:	9100214a 	add	x10, x10, #0x8
    400049f4:	f940014b 	ldr	x11, [x10]
    400049f8:	9274cd6b 	and	x11, x11, #0xfffffffffffff000
    400049fc:	91000529 	add	x9, x9, #0x1
    40004a00:	f801054b 	str	x11, [x10], #16
    40004a04:	eb08013f 	cmp	x9, x8
    40004a08:	54ffff63 	b.cc	400049f4 <one_time_init+0x1aec>  // b.lo, b.ul, b.last
    40004a0c:	90000589 	adrp	x9, 400b4000 <other_world+0x1bd0>
    40004a10:	795ae129 	ldrh	w9, [x9, #3440]
    40004a14:	b0000428 	adrp	x8, 40089000 <dlog_lock_enabled>
    40004a18:	9100c108 	add	x8, x8, #0x30
    40004a1c:	7100013f 	cmp	w9, #0x0
    40004a20:	9a8803e8 	csel	x8, xzr, x8, eq  // eq = none
    40004a24:	9102610b 	add	x11, x8, #0x98
    40004a28:	f9003feb 	str	x11, [sp, #120]
    40004a2c:	5280002a 	mov	w10, #0x1                   	// #1
    40004a30:	d50320bf 	sevl
    40004a34:	d503205f 	wfe
    40004a38:	885ffd69 	ldaxr	w9, [x11]
    40004a3c:	35ffffc9 	cbnz	w9, 40004a34 <one_time_init+0x1b2c>
    40004a40:	88097d6a 	stxr	w9, w10, [x11]
    40004a44:	35ffffa9 	cbnz	w9, 40004a38 <one_time_init+0x1b30>
    40004a48:	794917e9 	ldrh	w9, [sp, #1162]
    40004a4c:	3400bd29 	cbz	w9, 400061f0 <one_time_init+0x32e8>
    40004a50:	5284a409 	mov	w9, #0x2520                	// #9504
    40004a54:	8b090108 	add	x8, x8, x9
    40004a58:	f90037e8 	str	x8, [sp, #104]
    40004a5c:	91401be8 	add	x8, sp, #0x6, lsl #12
    40004a60:	911f4108 	add	x8, x8, #0x7d0
    40004a64:	aa1f03f5 	mov	x21, xzr
    40004a68:	b00000d6 	adrp	x22, 4001d000 <arch_mm_init.pa_bits_table+0x1a68>
    40004a6c:	910906d6 	add	x22, x22, #0x241
    40004a70:	5280c614 	mov	w20, #0x630                 	// #1584
    40004a74:	911223f3 	add	x19, sp, #0x488
    40004a78:	91002108 	add	x8, x8, #0x8
    40004a7c:	f90043e8 	str	x8, [sp, #128]
    40004a80:	1400000b 	b	40004aac <one_time_init+0x1ba4>
    40004a84:	b00000c0 	adrp	x0, 4001d000 <arch_mm_init.pa_bits_table+0x1a68>
    40004a88:	91370c00 	add	x0, x0, #0xdc3
    40004a8c:	94002495 	bl	4000dce0 <dlog>
    40004a90:	b00000c0 	adrp	x0, 4001d000 <arch_mm_init.pa_bits_table+0x1a68>
    40004a94:	91379000 	add	x0, x0, #0xde4
    40004a98:	94002492 	bl	4000dce0 <dlog>
    40004a9c:	794917e8 	ldrh	w8, [sp, #1162]
    40004aa0:	eb08031f 	cmp	x24, x8
    40004aa4:	aa1803f5 	mov	x21, x24
    40004aa8:	5400ba42 	b.cs	400061f0 <one_time_init+0x32e8>  // b.hs, b.nlast
    40004aac:	910006b8 	add	x24, x21, #0x1
    40004ab0:	12003f01 	and	w1, w24, #0xffff
    40004ab4:	7100043f 	cmp	w1, #0x1
    40004ab8:	54ffff20 	b.eq	40004a9c <one_time_init+0x1b94>  // b.none
    40004abc:	9b144eb7 	madd	x23, x21, x20, x19
    40004ac0:	38410ee8 	ldrb	w8, [x23, #16]!
    40004ac4:	aa1703ec 	mov	x12, x23
    40004ac8:	39400ee9 	ldrb	w9, [x23, #3]
    40004acc:	39400aea 	ldrb	w10, [x23, #2]
    40004ad0:	394006ed 	ldrb	w13, [x23, #1]
    40004ad4:	38404d90 	ldrb	w16, [x12, #4]!
    40004ad8:	aa1703ef 	mov	x15, x23
    40004adc:	394016f1 	ldrb	w17, [x23, #5]
    40004ae0:	394056ee 	ldrb	w14, [x23, #21]
    40004ae4:	b3781d2a 	bfi	x10, x9, #8, #8
    40004ae8:	b3781da8 	bfi	x8, x13, #8, #8
    40004aec:	39400d8d 	ldrb	w13, [x12, #3]
    40004af0:	39400983 	ldrb	w3, [x12, #2]
    40004af4:	38410de9 	ldrb	w9, [x15, #16]!
    40004af8:	b3703d48 	bfi	x8, x10, #16, #16
    40004afc:	aa0f03ea 	mov	x10, x15
    40004b00:	33181e30 	bfi	w16, w17, #8, #8
    40004b04:	38404d4c 	ldrb	w12, [x10, #4]!
    40004b08:	33181da3 	bfi	w3, w13, #8, #8
    40004b0c:	aa1703eb 	mov	x11, x23
    40004b10:	39400df2 	ldrb	w18, [x15, #3]
    40004b14:	394009e0 	ldrb	w0, [x15, #2]
    40004b18:	394046e2 	ldrb	w2, [x23, #17]
    40004b1c:	385fd2ed 	ldurb	w13, [x23, #-3]
    40004b20:	b3781e40 	bfi	x0, x18, #8, #8
    40004b24:	33103c70 	bfi	w16, w3, #16, #16
    40004b28:	39400d43 	ldrb	w3, [x10, #3]
    40004b2c:	39400951 	ldrb	w17, [x10, #2]
    40004b30:	385f8d6a 	ldrb	w10, [x11, #-8]!
    40004b34:	b3607e08 	bfi	x8, x16, #32, #32
    40004b38:	aa0b03f0 	mov	x16, x11
    40004b3c:	33181dcc 	bfi	w12, w14, #8, #8
    40004b40:	b3781c49 	bfi	x9, x2, #8, #8
    40004b44:	38404e0e 	ldrb	w14, [x16, #4]!
    40004b48:	b3703c09 	bfi	x9, x0, #16, #16
    40004b4c:	33181c71 	bfi	w17, w3, #8, #8
    40004b50:	39400d72 	ldrb	w18, [x11, #3]
    40004b54:	3940096b 	ldrb	w11, [x11, #2]
    40004b58:	385f92e0 	ldurb	w0, [x23, #-7]
    40004b5c:	aa1703ef 	mov	x15, x23
    40004b60:	394036e2 	ldrb	w2, [x23, #13]
    40004b64:	33103e2c 	bfi	w12, w17, #16, #16
    40004b68:	b3607d89 	bfi	x9, x12, #32, #32
    40004b6c:	39400e11 	ldrb	w17, [x16, #3]
    40004b70:	39400a10 	ldrb	w16, [x16, #2]
    40004b74:	38408de3 	ldrb	w3, [x15, #8]!
    40004b78:	b3781c0a 	bfi	x10, x0, #8, #8
    40004b7c:	b3781e4b 	bfi	x11, x18, #8, #8
    40004b80:	b3703d6a 	bfi	x10, x11, #16, #16
    40004b84:	aa0f03eb 	mov	x11, x15
    40004b88:	38404d6c 	ldrb	w12, [x11, #4]!
    40004b8c:	33181dae 	bfi	w14, w13, #8, #8
    40004b90:	33181e30 	bfi	w16, w17, #8, #8
    40004b94:	39400ded 	ldrb	w13, [x15, #3]
    40004b98:	394009ef 	ldrb	w15, [x15, #2]
    40004b9c:	394026f1 	ldrb	w17, [x23, #9]
    40004ba0:	33103e0e 	bfi	w14, w16, #16, #16
    40004ba4:	39400d70 	ldrb	w16, [x11, #3]
    40004ba8:	3940096b 	ldrb	w11, [x11, #2]
    40004bac:	33181c4c 	bfi	w12, w2, #8, #8
    40004bb0:	b3781e23 	bfi	x3, x17, #8, #8
    40004bb4:	b3781daf 	bfi	x15, x13, #8, #8
    40004bb8:	b3703de3 	bfi	x3, x15, #16, #16
    40004bbc:	91401be2 	add	x2, sp, #0x6, lsl #12
    40004bc0:	911ec042 	add	x2, x2, #0x7b0
    40004bc4:	f933dfe8 	str	x8, [sp, #26552]
    40004bc8:	33181e0b 	bfi	w11, w16, #8, #8
    40004bcc:	33103d6c 	bfi	w12, w11, #16, #16
    40004bd0:	b3607d83 	bfi	x3, x12, #32, #32
    40004bd4:	b3607dca 	bfi	x10, x14, #32, #32
    40004bd8:	aa1603e0 	mov	x0, x22
    40004bdc:	f933e7e9 	str	x9, [sp, #26568]
    40004be0:	f933e3e3 	str	x3, [sp, #26560]
    40004be4:	f933dbea 	str	x10, [sp, #26544]
    40004be8:	9400243e 	bl	4000dce0 <dlog>
    40004bec:	384bcee8 	ldrb	w8, [x23, #188]!
    40004bf0:	9114f2fa 	add	x26, x23, #0x53c
    40004bf4:	f9400349 	ldr	x9, [x26]
    40004bf8:	913ffd29 	add	x9, x9, #0xfff
    40004bfc:	9274cd21 	and	x1, x9, #0xfffffffffffff000
    40004c00:	34000348 	cbz	w8, 40004c68 <one_time_init+0x1d60>
    40004c04:	9b144ea8 	madd	x8, x21, x20, x19
    40004c08:	f9407d08 	ldr	x8, [x8, #248]
    40004c0c:	8b010119 	add	x25, x8, x1
    40004c10:	f9004be8 	str	x8, [sp, #144]
    40004c14:	cb080328 	sub	x8, x25, x8
    40004c18:	a909e3e8 	stp	x8, x24, [sp, #152]
    40004c1c:	9b144ea8 	madd	x8, x21, x20, x19
    40004c20:	3940a108 	ldrb	w8, [x8, #40]
    40004c24:	340003e8 	cbz	w8, 40004ca0 <one_time_init+0x1d98>
    40004c28:	9b144ea8 	madd	x8, x21, x20, x19
    40004c2c:	9100a113 	add	x19, x8, #0x28
    40004c30:	910323e0 	add	x0, sp, #0xc8
    40004c34:	d10283a2 	sub	x2, x29, #0xa0
    40004c38:	aa1303e1 	mov	x1, x19
    40004c3c:	911223f8 	add	x24, sp, #0x488
    40004c40:	97fff5db 	bl	400023ac <cpio_get_file>
    40004c44:	36000680 	tbz	w0, #0, 40004d14 <one_time_init+0x1e0c>
    40004c48:	a97623a9 	ldp	x9, x8, [x29, #-160]
    40004c4c:	cb090113 	sub	x19, x8, x9
    40004c50:	f9404fe8 	ldr	x8, [sp, #152]
    40004c54:	eb13011f 	cmp	x8, x19
    40004c58:	54000702 	b.cs	40004d38 <one_time_init+0x1e30>  // b.hs, b.nlast
    40004c5c:	b00000c0 	adrp	x0, 4001d000 <arch_mm_init.pa_bits_table+0x1a68>
    40004c60:	91006000 	add	x0, x0, #0x18
    40004c64:	1400003d 	b	40004d58 <one_time_init+0x1e50>
    40004c68:	f941e3e9 	ldr	x9, [sp, #960]
    40004c6c:	b4000129 	cbz	x9, 40004c90 <one_time_init+0x1d88>
    40004c70:	f94043e8 	ldr	x8, [sp, #128]
    40004c74:	a97fe50a 	ldp	x10, x25, [x8, #-8]
    40004c78:	cb0a032a 	sub	x10, x25, x10
    40004c7c:	eb01015f 	cmp	x10, x1
    40004c80:	54000542 	b.cs	40004d28 <one_time_init+0x1e20>  // b.hs, b.nlast
    40004c84:	f1000529 	subs	x9, x9, #0x1
    40004c88:	91004108 	add	x8, x8, #0x10
    40004c8c:	54ffff41 	b.ne	40004c74 <one_time_init+0x1d6c>  // b.any
    40004c90:	b00000c0 	adrp	x0, 4001d000 <arch_mm_init.pa_bits_table+0x1a68>
    40004c94:	913adc00 	add	x0, x0, #0xeb7
    40004c98:	94002412 	bl	4000dce0 <dlog>
    40004c9c:	17ffff80 	b	40004a9c <one_time_init+0x1b94>
    40004ca0:	911223f8 	add	x24, sp, #0x488
    40004ca4:	aa1f03f3 	mov	x19, xzr
    40004ca8:	9b1462a8 	madd	x8, x21, x20, x24
    40004cac:	f94053f8 	ldr	x24, [sp, #160]
    40004cb0:	39584909 	ldrb	w9, [x8, #1554]
    40004cb4:	b9008be9 	str	w9, [sp, #136]
    40004cb8:	34003149 	cbz	w9, 400052e0 <one_time_init+0x23d8>
    40004cbc:	91184901 	add	x1, x8, #0x612
    40004cc0:	910323e0 	add	x0, sp, #0xc8
    40004cc4:	d10283a2 	sub	x2, x29, #0xa0
    40004cc8:	97fff5b9 	bl	400023ac <cpio_get_file>
    40004ccc:	36000540 	tbz	w0, #0, 40004d74 <one_time_init+0x1e6c>
    40004cd0:	f9404fe9 	ldr	x9, [sp, #152]
    40004cd4:	913ffe68 	add	x8, x19, #0xfff
    40004cd8:	9274cd08 	and	x8, x8, #0xfffffffffffff000
    40004cdc:	cb080122 	sub	x2, x9, x8
    40004ce0:	a97623a9 	ldp	x9, x8, [x29, #-160]
    40004ce4:	cb090108 	sub	x8, x8, x9
    40004ce8:	5283ffe9 	mov	w9, #0x1fff                	// #8191
    40004cec:	8b090108 	add	x8, x8, x9
    40004cf0:	9274cd14 	and	x20, x8, #0xfffffffffffff000
    40004cf4:	eb02029f 	cmp	x20, x2
    40004cf8:	540004c9 	b.ls	40004d90 <one_time_init+0x1e88>  // b.plast
    40004cfc:	b00000c0 	adrp	x0, 4001d000 <arch_mm_init.pa_bits_table+0x1a68>
    40004d00:	91399800 	add	x0, x0, #0xe66
    40004d04:	aa1403e1 	mov	x1, x20
    40004d08:	940023f6 	bl	4000dce0 <dlog>
    40004d0c:	5280c614 	mov	w20, #0x630                 	// #1584
    40004d10:	1400001c 	b	40004d80 <one_time_init+0x1e78>
    40004d14:	b00000c0 	adrp	x0, 4001d000 <arch_mm_init.pa_bits_table+0x1a68>
    40004d18:	913e1c00 	add	x0, x0, #0xf87
    40004d1c:	aa1303e1 	mov	x1, x19
    40004d20:	940023f0 	bl	4000dce0 <dlog>
    40004d24:	1400000e 	b	40004d5c <one_time_init+0x1e54>
    40004d28:	cb010329 	sub	x9, x25, x1
    40004d2c:	f9000109 	str	x9, [x8]
    40004d30:	aa0903e8 	mov	x8, x9
    40004d34:	17ffffb7 	b	40004c10 <one_time_init+0x1d08>
    40004d38:	f9404be1 	ldr	x1, [sp, #144]
    40004d3c:	d10283a2 	sub	x2, x29, #0xa0
    40004d40:	b0000420 	adrp	x0, 40089000 <dlog_lock_enabled>
    40004d44:	91008000 	add	x0, x0, #0x20
    40004d48:	940008aa 	bl	40006ff0 <copy_to_unmapped>
    40004d4c:	3707fae0 	tbnz	w0, #0, 40004ca8 <one_time_init+0x1da0>
    40004d50:	b00000c0 	adrp	x0, 4001d000 <arch_mm_init.pa_bits_table+0x1a68>
    40004d54:	910f6000 	add	x0, x0, #0x3d8
    40004d58:	940023e2 	bl	4000dce0 <dlog>
    40004d5c:	b00000c0 	adrp	x0, 4001d000 <arch_mm_init.pa_bits_table+0x1a68>
    40004d60:	910fdc00 	add	x0, x0, #0x3f7
    40004d64:	940023df 	bl	4000dce0 <dlog>
    40004d68:	f94053f8 	ldr	x24, [sp, #160]
    40004d6c:	911223f3 	add	x19, sp, #0x488
    40004d70:	17ffff48 	b	40004a90 <one_time_init+0x1b88>
    40004d74:	b00000c0 	adrp	x0, 4001d000 <arch_mm_init.pa_bits_table+0x1a68>
    40004d78:	912ba400 	add	x0, x0, #0xae9
    40004d7c:	940023d9 	bl	4000dce0 <dlog>
    40004d80:	911223f3 	add	x19, sp, #0x488
    40004d84:	b00000c0 	adrp	x0, 4001d000 <arch_mm_init.pa_bits_table+0x1a68>
    40004d88:	912f1800 	add	x0, x0, #0xbc6
    40004d8c:	17ffff40 	b	40004a8c <one_time_init+0x1b84>
    40004d90:	f90033fa 	str	x26, [sp, #96]
    40004d94:	eb14033a 	subs	x26, x25, x20
    40004d98:	911223f3 	add	x19, sp, #0x488
    40004d9c:	54010d63 	b.cc	40006f48 <one_time_init+0x4040>  // b.lo, b.ul, b.last
    40004da0:	b00000c0 	adrp	x0, 4001d000 <arch_mm_init.pa_bits_table+0x1a68>
    40004da4:	9101e800 	add	x0, x0, #0x7a
    40004da8:	aa1403e1 	mov	x1, x20
    40004dac:	aa1a03e2 	mov	x2, x26
    40004db0:	940023cc 	bl	4000dce0 <dlog>
    40004db4:	d10283a2 	sub	x2, x29, #0xa0
    40004db8:	b0000420 	adrp	x0, 40089000 <dlog_lock_enabled>
    40004dbc:	91008000 	add	x0, x0, #0x20
    40004dc0:	aa1a03e1 	mov	x1, x26
    40004dc4:	9400088b 	bl	40006ff0 <copy_to_unmapped>
    40004dc8:	36000900 	tbz	w0, #0, 40004ee8 <one_time_init+0x1fe0>
    40004dcc:	913fff28 	add	x8, x25, #0xfff
    40004dd0:	9274cd09 	and	x9, x8, #0xfffffffffffff000
    40004dd4:	d367fd08 	lsr	x8, x8, #39
    40004dd8:	f100011f 	cmp	x8, #0x0
    40004ddc:	d2c01008 	mov	x8, #0x8000000000          	// #549755813888
    40004de0:	92748f4a 	and	x10, x26, #0xfffffffff000
    40004de4:	f9001bfa 	str	x26, [sp, #48]
    40004de8:	f9003bea 	str	x10, [sp, #112]
    40004dec:	9a88013c 	csel	x28, x9, x8, eq  // eq = none
    40004df0:	eb0a0388 	subs	x8, x28, x10
    40004df4:	d367bf5a 	ubfx	x26, x26, #39, #9
    40004df8:	f9002fe8 	str	x8, [sp, #88]
    40004dfc:	54000629 	b.ls	40004ec0 <one_time_init+0x1fb8>  // b.plast
    40004e00:	b0000428 	adrp	x8, 40089000 <dlog_lock_enabled>
    40004e04:	f9401108 	ldr	x8, [x8, #32]
    40004e08:	f9403bfb 	ldr	x27, [sp, #112]
    40004e0c:	8b1a3113 	add	x19, x8, x26, lsl #12
    40004e10:	d280d088 	mov	x8, #0x684                 	// #1668
    40004e14:	f2e00808 	movk	x8, #0x40, lsl #48
    40004e18:	d101fd16 	sub	x22, x8, #0x7f
    40004e1c:	aa1b03e0 	mov	x0, x27
    40004e20:	aa1c03e1 	mov	x1, x28
    40004e24:	aa1b03e2 	mov	x2, x27
    40004e28:	aa1303e4 	mov	x4, x19
    40004e2c:	52800045 	mov	w5, #0x2                   	// #2
    40004e30:	52800086 	mov	w6, #0x4                   	// #4
    40004e34:	aa1603e3 	mov	x3, x22
    40004e38:	900000e7 	adrp	x7, 40020000 <arch_mm_config>
    40004e3c:	9100e0e7 	add	x7, x7, #0x38
    40004e40:	9400327a 	bl	40011828 <mm_map_level>
    40004e44:	36000820 	tbz	w0, #0, 40004f48 <one_time_init+0x2040>
    40004e48:	d2c01008 	mov	x8, #0x8000000000          	// #549755813888
    40004e4c:	8b080368 	add	x8, x27, x8
    40004e50:	9259611b 	and	x27, x8, #0xffffff8000000000
    40004e54:	91400673 	add	x19, x19, #0x1, lsl #12
    40004e58:	eb1c037f 	cmp	x27, x28
    40004e5c:	54fffda3 	b.cc	40004e10 <one_time_init+0x1f08>  // b.lo, b.ul, b.last
    40004e60:	f9403be8 	ldr	x8, [sp, #112]
    40004e64:	eb08039f 	cmp	x28, x8
    40004e68:	540002c9 	b.ls	40004ec0 <one_time_init+0x1fb8>  // b.plast
    40004e6c:	b0000428 	adrp	x8, 40089000 <dlog_lock_enabled>
    40004e70:	f9401108 	ldr	x8, [x8, #32]
    40004e74:	f9403bfb 	ldr	x27, [sp, #112]
    40004e78:	8b1a3113 	add	x19, x8, x26, lsl #12
    40004e7c:	aa1b03e0 	mov	x0, x27
    40004e80:	aa1c03e1 	mov	x1, x28
    40004e84:	aa1b03e2 	mov	x2, x27
    40004e88:	aa1603e3 	mov	x3, x22
    40004e8c:	aa1303e4 	mov	x4, x19
    40004e90:	52800045 	mov	w5, #0x2                   	// #2
    40004e94:	528000a6 	mov	w6, #0x5                   	// #5
    40004e98:	900000e7 	adrp	x7, 40020000 <arch_mm_config>
    40004e9c:	9100e0e7 	add	x7, x7, #0x38
    40004ea0:	94003262 	bl	40011828 <mm_map_level>
    40004ea4:	3600f3e0 	tbz	w0, #0, 40006d20 <one_time_init+0x3e18>
    40004ea8:	d2c01008 	mov	x8, #0x8000000000          	// #549755813888
    40004eac:	8b080368 	add	x8, x27, x8
    40004eb0:	9259611b 	and	x27, x8, #0xffffff8000000000
    40004eb4:	91400673 	add	x19, x19, #0x1, lsl #12
    40004eb8:	eb1c037f 	cmp	x27, x28
    40004ebc:	54fffe03 	b.cc	40004e7c <one_time_init+0x1f74>  // b.lo, b.ul, b.last
    40004ec0:	f9402fe9 	ldr	x9, [sp, #88]
    40004ec4:	d5033a9f 	dsb	ishst
    40004ec8:	f148013f 	cmp	x9, #0x200, lsl #12
    40004ecc:	f9403be8 	ldr	x8, [sp, #112]
    40004ed0:	d34cfd1b 	lsr	x27, x8, #12
    40004ed4:	d34cff96 	lsr	x22, x28, #12
    40004ed8:	54000129 	b.ls	40004efc <one_time_init+0x1ff4>  // b.plast
    40004edc:	d50c831f 	tlbi	alle2is
    40004ee0:	f9401bf3 	ldr	x19, [sp, #48]
    40004ee4:	1400000e 	b	40004f1c <one_time_init+0x2014>
    40004ee8:	b00000c0 	adrp	x0, 4001d000 <arch_mm_init.pa_bits_table+0x1a68>
    40004eec:	912b3400 	add	x0, x0, #0xacd
    40004ef0:	9400237c 	bl	4000dce0 <dlog>
    40004ef4:	5280c614 	mov	w20, #0x630                 	// #1584
    40004ef8:	17ffffa3 	b	40004d84 <one_time_init+0x1e7c>
    40004efc:	f9401bf3 	ldr	x19, [sp, #48]
    40004f00:	eb5c337f 	cmp	x27, x28, lsr #12
    40004f04:	540000c2 	b.cs	40004f1c <one_time_init+0x2014>  // b.hs, b.nlast
    40004f08:	aa1b03e8 	mov	x8, x27
    40004f0c:	d50c8328 	tlbi	vae2is, x8
    40004f10:	91000508 	add	x8, x8, #0x1
    40004f14:	eb0802df 	cmp	x22, x8
    40004f18:	54ffffa1 	b.ne	40004f0c <one_time_init+0x2004>  // b.any
    40004f1c:	d5033b9f 	dsb	ish
    40004f20:	d5033fdf 	isb
    40004f24:	b4000133 	cbz	x19, 40004f48 <one_time_init+0x2040>
    40004f28:	aa1303e0 	mov	x0, x19
    40004f2c:	aa1403e1 	mov	x1, x20
    40004f30:	94002b80 	bl	4000fd30 <fdt_check_full>
    40004f34:	34000280 	cbz	w0, 40004f84 <one_time_init+0x207c>
    40004f38:	2a0003e1 	mov	w1, w0
    40004f3c:	900000c0 	adrp	x0, 4001c000 <arch_mm_init.pa_bits_table+0xa68>
    40004f40:	913dd800 	add	x0, x0, #0xf76
    40004f44:	14000096 	b	4000519c <one_time_init+0x2294>
    40004f48:	b00000c0 	adrp	x0, 4001d000 <arch_mm_init.pa_bits_table+0x1a68>
    40004f4c:	91180800 	add	x0, x0, #0x602
    40004f50:	d280d09b 	mov	x27, #0x684                 	// #1668
    40004f54:	d280879c 	mov	x28, #0x43c                 	// #1084
    40004f58:	f2e0281c 	movk	x28, #0x140, lsl #48
    40004f5c:	f2e0081b 	movk	x27, #0x40, lsl #48
    40004f60:	b00000d6 	adrp	x22, 4001d000 <arch_mm_init.pa_bits_table+0x1a68>
    40004f64:	910906d6 	add	x22, x22, #0x241
    40004f68:	5280c614 	mov	w20, #0x630                 	// #1584
    40004f6c:	9400235d 	bl	4000dce0 <dlog>
    40004f70:	b00000c0 	adrp	x0, 4001d000 <arch_mm_init.pa_bits_table+0x1a68>
    40004f74:	912e0c00 	add	x0, x0, #0xb83
    40004f78:	9400235a 	bl	4000dce0 <dlog>
    40004f7c:	911223f3 	add	x19, sp, #0x488
    40004f80:	17fffec4 	b	40004a90 <one_time_init+0x1b88>
    40004f84:	aa1303e0 	mov	x0, x19
    40004f88:	aa1303e1 	mov	x1, x19
    40004f8c:	2a1403e2 	mov	w2, w20
    40004f90:	94002e6c 	bl	40010940 <fdt_open_into>
    40004f94:	340000a0 	cbz	w0, 40004fa8 <one_time_init+0x20a0>
    40004f98:	2a0003e1 	mov	w1, w0
    40004f9c:	900000c0 	adrp	x0, 4001c000 <arch_mm_init.pa_bits_table+0xa68>
    40004fa0:	913d2c00 	add	x0, x0, #0xf4b
    40004fa4:	1400007e 	b	4000519c <one_time_init+0x2294>
    40004fa8:	aa1303e0 	mov	x0, x19
    40004fac:	900000c1 	adrp	x1, 4001c000 <arch_mm_init.pa_bits_table+0xa68>
    40004fb0:	91059c21 	add	x1, x1, #0x167
    40004fb4:	52800022 	mov	w2, #0x1                   	// #1
    40004fb8:	94002abf 	bl	4000fab4 <fdt_path_offset_namelen>
    40004fbc:	2a0003f4 	mov	w20, w0
    40004fc0:	aa1303e0 	mov	x0, x19
    40004fc4:	94002682 	bl	4000e9cc <fdt_ro_probe_>
    40004fc8:	37f80e40 	tbnz	w0, #31, 40005190 <one_time_init+0x2288>
    40004fcc:	39405268 	ldrb	w8, [x19, #20]
    40004fd0:	53081d08 	lsl	w8, w8, #24
    40004fd4:	39405669 	ldrb	w9, [x19, #21]
    40004fd8:	33101d28 	bfi	w8, w9, #16, #8
    40004fdc:	39405a69 	ldrb	w9, [x19, #22]
    40004fe0:	33181d28 	bfi	w8, w9, #8, #8
    40004fe4:	39405e69 	ldrb	w9, [x19, #23]
    40004fe8:	b9004bf4 	str	w20, [sp, #72]
    40004fec:	2a090114 	orr	w20, w8, w9
    40004ff0:	7100469f 	cmp	w20, #0x11
    40004ff4:	12800120 	mov	w0, #0xfffffff6            	// #-10
    40004ff8:	54000cc3 	b.cc	40005190 <one_time_init+0x2288>  // b.lo, b.ul, b.last
    40004ffc:	f9401be0 	ldr	x0, [sp, #48]
    40005000:	52800201 	mov	w1, #0x10                  	// #16
    40005004:	39409008 	ldrb	w8, [x0, #36]
    40005008:	39409409 	ldrb	w9, [x0, #37]
    4000500c:	53081d08 	lsl	w8, w8, #24
    40005010:	33101d28 	bfi	w8, w9, #16, #8
    40005014:	39409809 	ldrb	w9, [x0, #38]
    40005018:	33181d28 	bfi	w8, w9, #8, #8
    4000501c:	39409c09 	ldrb	w9, [x0, #39]
    40005020:	2a090102 	orr	w2, w8, w9
    40005024:	94002c4a 	bl	4001014c <fdt_blocks_misordered_>
    40005028:	2a0003e8 	mov	w8, w0
    4000502c:	12800160 	mov	w0, #0xfffffff4            	// #-12
    40005030:	35000b08 	cbnz	w8, 40005190 <one_time_init+0x2288>
    40005034:	f9401be0 	ldr	x0, [sp, #48]
    40005038:	71004a9f 	cmp	w20, #0x12
    4000503c:	54000063 	b.cc	40005048 <one_time_init+0x2140>  // b.lo, b.ul, b.last
    40005040:	52a22008 	mov	w8, #0x11000000            	// #285212672
    40005044:	b9001408 	str	w8, [x0, #20]
    40005048:	b9404be1 	ldr	w1, [sp, #72]
    4000504c:	d00000a2 	adrp	x2, 4001b000 <rodata_begin>
    40005050:	911bd042 	add	x2, x2, #0x6f4
    40005054:	528000c3 	mov	w3, #0x6                   	// #6
    40005058:	9400299a 	bl	4000f6c0 <fdt_subnode_offset_namelen>
    4000505c:	37f80060 	tbnz	w0, #31, 40005068 <one_time_init+0x2160>
    40005060:	12800020 	mov	w0, #0xfffffffe            	// #-2
    40005064:	1400004b 	b	40005190 <one_time_init+0x2288>
    40005068:	3100041f 	cmn	w0, #0x1
    4000506c:	54000921 	b.ne	40005190 <one_time_init+0x2288>  // b.any
    40005070:	f9401bf3 	ldr	x19, [sp, #48]
    40005074:	d10283a2 	sub	x2, x29, #0xa0
    40005078:	aa1303e0 	mov	x0, x19
    4000507c:	b9404be1 	ldr	w1, [sp, #72]
    40005080:	9400277e 	bl	4000ee78 <fdt_next_tag>
    40005084:	91401bf4 	add	x20, sp, #0x6, lsl #12
    40005088:	911ec294 	add	x20, x20, #0x7b0
    4000508c:	b9416298 	ldr	w24, [x20, #352]
    40005090:	d10283a2 	sub	x2, x29, #0xa0
    40005094:	aa1303e0 	mov	x0, x19
    40005098:	2a1803e1 	mov	w1, w24
    4000509c:	94002777 	bl	4000ee78 <fdt_next_tag>
    400050a0:	51000c08 	sub	w8, w0, #0x3
    400050a4:	7100091f 	cmp	w8, #0x2
    400050a8:	54ffff23 	b.cc	4000508c <one_time_init+0x2184>  // b.lo, b.ul, b.last
    400050ac:	39402269 	ldrb	w9, [x19, #8]
    400050b0:	d3689d29 	lsl	x9, x9, #24
    400050b4:	3940266a 	ldrb	w10, [x19, #9]
    400050b8:	b3701d49 	bfi	x9, x10, #16, #8
    400050bc:	39402a6a 	ldrb	w10, [x19, #10]
    400050c0:	b3781d49 	bfi	x9, x10, #8, #8
    400050c4:	39402e6a 	ldrb	w10, [x19, #11]
    400050c8:	aa0a0129 	orr	x9, x9, x10
    400050cc:	93407f08 	sxtw	x8, w24
    400050d0:	12800060 	mov	w0, #0xfffffffc            	// #-4
    400050d4:	8b090269 	add	x9, x19, x9
    400050d8:	8b080134 	add	x20, x9, x8
    400050dc:	eb13029f 	cmp	x20, x19
    400050e0:	f9002bf8 	str	x24, [sp, #80]
    400050e4:	54000543 	b.cc	4000518c <one_time_init+0x2284>  // b.lo, b.ul, b.last
    400050e8:	f9401beb 	ldr	x11, [sp, #48]
    400050ec:	39403168 	ldrb	w8, [x11, #12]
    400050f0:	39403569 	ldrb	w9, [x11, #13]
    400050f4:	53081d08 	lsl	w8, w8, #24
    400050f8:	33101d28 	bfi	w8, w9, #16, #8
    400050fc:	39403969 	ldrb	w9, [x11, #14]
    40005100:	33181d28 	bfi	w8, w9, #8, #8
    40005104:	39403d69 	ldrb	w9, [x11, #15]
    40005108:	2a090108 	orr	w8, w8, w9
    4000510c:	39408169 	ldrb	w9, [x11, #32]
    40005110:	3940856a 	ldrb	w10, [x11, #33]
    40005114:	53081d29 	lsl	w9, w9, #24
    40005118:	33101d49 	bfi	w9, w10, #16, #8
    4000511c:	3940896a 	ldrb	w10, [x11, #34]
    40005120:	33181d49 	bfi	w9, w10, #8, #8
    40005124:	39408d6a 	ldrb	w10, [x11, #35]
    40005128:	2a0a0129 	orr	w9, w9, w10
    4000512c:	0b080128 	add	w8, w9, w8
    40005130:	f94053f8 	ldr	x24, [sp, #160]
    40005134:	8b28c168 	add	x8, x11, w8, sxtw
    40005138:	eb08029f 	cmp	x20, x8
    4000513c:	540002a8 	b.hi	40005190 <one_time_init+0x2288>  // b.pmore
    40005140:	f9401bea 	ldr	x10, [sp, #48]
    40005144:	91004109 	add	x9, x8, #0x10
    40005148:	eb0a013f 	cmp	x9, x10
    4000514c:	54000062 	b.cs	40005158 <one_time_init+0x2250>  // b.hs, b.nlast
    40005150:	12800060 	mov	w0, #0xfffffffc            	// #-4
    40005154:	1400000e 	b	4000518c <one_time_init+0x2284>
    40005158:	f9401bec 	ldr	x12, [sp, #48]
    4000515c:	3940118a 	ldrb	w10, [x12, #4]
    40005160:	3940158b 	ldrb	w11, [x12, #5]
    40005164:	d3689d4a 	lsl	x10, x10, #24
    40005168:	b3701d6a 	bfi	x10, x11, #16, #8
    4000516c:	3940198b 	ldrb	w11, [x12, #6]
    40005170:	b3781d6a 	bfi	x10, x11, #8, #8
    40005174:	39401d8b 	ldrb	w11, [x12, #7]
    40005178:	aa0b014a 	orr	x10, x10, x11
    4000517c:	8b0a018a 	add	x10, x12, x10
    40005180:	eb0a013f 	cmp	x9, x10
    40005184:	54005f69 	b.ls	40005d70 <one_time_init+0x2e68>  // b.plast
    40005188:	12800040 	mov	w0, #0xfffffffd            	// #-3
    4000518c:	f94053f8 	ldr	x24, [sp, #160]
    40005190:	2a0003e1 	mov	w1, w0
    40005194:	f00000a0 	adrp	x0, 4001c000 <arch_mm_init.pa_bits_table+0xa68>
    40005198:	913e7c00 	add	x0, x0, #0xf9f
    4000519c:	f9002be1 	str	x1, [sp, #80]
    400051a0:	940022d0 	bl	4000dce0 <dlog>
    400051a4:	5280c614 	mov	w20, #0x630                 	// #1584
    400051a8:	f9403be9 	ldr	x9, [sp, #112]
    400051ac:	eb09039f 	cmp	x28, x9
    400051b0:	54000609 	b.ls	40005270 <one_time_init+0x2368>  // b.plast
    400051b4:	90000428 	adrp	x8, 40089000 <dlog_lock_enabled>
    400051b8:	f9401108 	ldr	x8, [x8, #32]
    400051bc:	8b1a3113 	add	x19, x8, x26, lsl #12
    400051c0:	aa0903f4 	mov	x20, x9
    400051c4:	d280d083 	mov	x3, #0x684                 	// #1668
    400051c8:	aa1403e0 	mov	x0, x20
    400051cc:	aa1c03e1 	mov	x1, x28
    400051d0:	aa1403e2 	mov	x2, x20
    400051d4:	f2e00803 	movk	x3, #0x40, lsl #48
    400051d8:	aa1303e4 	mov	x4, x19
    400051dc:	52800045 	mov	w5, #0x2                   	// #2
    400051e0:	528000c6 	mov	w6, #0x6                   	// #6
    400051e4:	f00000c7 	adrp	x7, 40020000 <arch_mm_config>
    400051e8:	9100e0e7 	add	x7, x7, #0x38
    400051ec:	9400318f 	bl	40011828 <mm_map_level>
    400051f0:	36004a40 	tbz	w0, #0, 40005b38 <one_time_init+0x2c30>
    400051f4:	d2c01008 	mov	x8, #0x8000000000          	// #549755813888
    400051f8:	8b080288 	add	x8, x20, x8
    400051fc:	92596114 	and	x20, x8, #0xffffff8000000000
    40005200:	91400673 	add	x19, x19, #0x1, lsl #12
    40005204:	eb1c029f 	cmp	x20, x28
    40005208:	54fffde3 	b.cc	400051c4 <one_time_init+0x22bc>  // b.lo, b.ul, b.last
    4000520c:	f9403be0 	ldr	x0, [sp, #112]
    40005210:	eb00039f 	cmp	x28, x0
    40005214:	5280c614 	mov	w20, #0x630                 	// #1584
    40005218:	540002c9 	b.ls	40005270 <one_time_init+0x2368>  // b.plast
    4000521c:	90000428 	adrp	x8, 40089000 <dlog_lock_enabled>
    40005220:	f9401108 	ldr	x8, [x8, #32]
    40005224:	8b1a3113 	add	x19, x8, x26, lsl #12
    40005228:	d280d083 	mov	x3, #0x684                 	// #1668
    4000522c:	aa1c03e1 	mov	x1, x28
    40005230:	aa0003e2 	mov	x2, x0
    40005234:	f2e00803 	movk	x3, #0x40, lsl #48
    40005238:	aa1303e4 	mov	x4, x19
    4000523c:	52800045 	mov	w5, #0x2                   	// #2
    40005240:	528000e6 	mov	w6, #0x7                   	// #7
    40005244:	f00000c7 	adrp	x7, 40020000 <arch_mm_config>
    40005248:	9100e0e7 	add	x7, x7, #0x38
    4000524c:	aa0003fa 	mov	x26, x0
    40005250:	94003176 	bl	40011828 <mm_map_level>
    40005254:	3600d660 	tbz	w0, #0, 40006d20 <one_time_init+0x3e18>
    40005258:	d2c01008 	mov	x8, #0x8000000000          	// #549755813888
    4000525c:	8b080348 	add	x8, x26, x8
    40005260:	92596100 	and	x0, x8, #0xffffff8000000000
    40005264:	91400673 	add	x19, x19, #0x1, lsl #12
    40005268:	eb1c001f 	cmp	x0, x28
    4000526c:	54fffde3 	b.cc	40005228 <one_time_init+0x2320>  // b.lo, b.ul, b.last
    40005270:	d5033a9f 	dsb	ishst
    40005274:	f9402fe8 	ldr	x8, [sp, #88]
    40005278:	f148011f 	cmp	x8, #0x200, lsl #12
    4000527c:	540000c9 	b.ls	40005294 <one_time_init+0x238c>  // b.plast
    40005280:	d50c831f 	tlbi	alle2is
    40005284:	f9401be8 	ldr	x8, [sp, #48]
    40005288:	d280879c 	mov	x28, #0x43c                 	// #1084
    4000528c:	f2e0281c 	movk	x28, #0x140, lsl #48
    40005290:	1400000a 	b	400052b8 <one_time_init+0x23b0>
    40005294:	f9401be8 	ldr	x8, [sp, #48]
    40005298:	eb5c337f 	cmp	x27, x28, lsr #12
    4000529c:	d280879c 	mov	x28, #0x43c                 	// #1084
    400052a0:	f2e0281c 	movk	x28, #0x140, lsl #48
    400052a4:	540000a2 	b.cs	400052b8 <one_time_init+0x23b0>  // b.hs, b.nlast
    400052a8:	d50c833b 	tlbi	vae2is, x27
    400052ac:	9100077b 	add	x27, x27, #0x1
    400052b0:	eb1b02df 	cmp	x22, x27
    400052b4:	54ffffa1 	b.ne	400052a8 <one_time_init+0x23a0>  // b.any
    400052b8:	d5033b9f 	dsb	ish
    400052bc:	d5033fdf 	isb
    400052c0:	b40042e8 	cbz	x8, 40005b1c <one_time_init+0x2c14>
    400052c4:	f94033fa 	ldr	x26, [sp, #96]
    400052c8:	d280d09b 	mov	x27, #0x684                 	// #1668
    400052cc:	f2e0081b 	movk	x27, #0x40, lsl #48
    400052d0:	f9402be8 	ldr	x8, [sp, #80]
    400052d4:	900000d6 	adrp	x22, 4001d000 <arch_mm_init.pa_bits_table+0x1a68>
    400052d8:	910906d6 	add	x22, x22, #0x241
    400052dc:	35ffe4a8 	cbnz	w8, 40004f70 <one_time_init+0x2068>
    400052e0:	f0000568 	adrp	x8, 400b4000 <other_world+0x1bd0>
    400052e4:	795ae108 	ldrh	w8, [x8, #3440]
    400052e8:	71003d1f 	cmp	w8, #0xf
    400052ec:	911223f3 	add	x19, sp, #0x488
    400052f0:	54ffbca8 	b.hi	40004a84 <one_time_init+0x1b7c>  // b.pmore
    400052f4:	9b144ea9 	madd	x9, x21, x20, x19
    400052f8:	91184129 	add	x9, x9, #0x610
    400052fc:	79400121 	ldrh	w1, [x9]
    40005300:	11000500 	add	w0, w8, #0x1
    40005304:	f9001fe9 	str	x9, [sp, #56]
    40005308:	94003451 	bl	4001244c <vm_init>
    4000530c:	b4ffbbc0 	cbz	x0, 40004a84 <one_time_init+0x1b7c>
    40005310:	f0000568 	adrp	x8, 400b4000 <other_world+0x1bd0>
    40005314:	aa0803e9 	mov	x9, x8
    40005318:	795ae108 	ldrh	w8, [x8, #3440]
    4000531c:	11000508 	add	w8, w8, #0x1
    40005320:	9102600a 	add	x10, x0, #0x98
    40005324:	f90033fa 	str	x26, [sp, #96]
    40005328:	791ae128 	strh	w8, [x9, #3440]
    4000532c:	f90023ea 	str	x10, [sp, #64]
    40005330:	52800029 	mov	w9, #0x1                   	// #1
    40005334:	d50320bf 	sevl
    40005338:	d503205f 	wfe
    4000533c:	885ffd48 	ldaxr	w8, [x10]
    40005340:	35ffffc8 	cbnz	w8, 40005338 <one_time_init+0x2430>
    40005344:	88087d49 	stxr	w8, w9, [x10]
    40005348:	35ffffa8 	cbnz	w8, 4000533c <one_time_init+0x2434>
    4000534c:	90000428 	adrp	x8, 40089000 <dlog_lock_enabled>
    40005350:	39404114 	ldrb	w20, [x8, #16]
    40005354:	11000688 	add	w8, w20, #0x1
    40005358:	12001d09 	and	w9, w8, #0xff
    4000535c:	7100053f 	cmp	w9, #0x1
    40005360:	5400d0e9 	b.ls	40006d7c <one_time_init+0x3e74>  // b.plast
    40005364:	5284a409 	mov	w9, #0x2520                	// #9504
    40005368:	8b090009 	add	x9, x0, x9
    4000536c:	f9003be9 	str	x9, [sp, #112]
    40005370:	90000429 	adrp	x9, 40089000 <dlog_lock_enabled>
    40005374:	39405129 	ldrb	w9, [x9, #20]
    40005378:	92401d0a 	and	x10, x8, #0xff
    4000537c:	8b280d48 	add	x8, x10, w8, uxtb #3
    40005380:	5282000a 	mov	w10, #0x1000                	// #4096
    40005384:	9ac82158 	lsl	x24, x10, x8
    40005388:	913fff2a 	add	x10, x25, #0xfff
    4000538c:	9274cd4b 	and	x11, x10, #0xfffffffffffff000
    40005390:	f9404bea 	ldr	x10, [sp, #144]
    40005394:	f9000feb 	str	x11, [sp, #24]
    40005398:	9b097f09 	mul	x9, x24, x9
    4000539c:	92748d4a 	and	x10, x10, #0xfffffffff000
    400053a0:	a90503ea 	stp	x10, x0, [sp, #80]
    400053a4:	eb09017f 	cmp	x11, x9
    400053a8:	9a8b8136 	csel	x22, x9, x11, hi  // hi = pmore
    400053ac:	eb16015f 	cmp	x10, x22
    400053b0:	54000342 	b.cs	40005418 <one_time_init+0x2510>  // b.hs, b.nlast
    400053b4:	f9403be9 	ldr	x9, [sp, #112]
    400053b8:	91003108 	add	x8, x8, #0xc
    400053bc:	cb1803fb 	neg	x27, x24
    400053c0:	f9402bfa 	ldr	x26, [sp, #80]
    400053c4:	9ac82748 	lsr	x8, x26, x8
    400053c8:	f9400129 	ldr	x9, [x9]
    400053cc:	92402108 	and	x8, x8, #0x1ff
    400053d0:	8b083133 	add	x19, x9, x8, lsl #12
    400053d4:	d2809fa3 	mov	x3, #0x4fd                 	// #1277
    400053d8:	aa1a03e0 	mov	x0, x26
    400053dc:	aa1603e1 	mov	x1, x22
    400053e0:	aa1a03e2 	mov	x2, x26
    400053e4:	f2e03003 	movk	x3, #0x180, lsl #48
    400053e8:	aa1303e4 	mov	x4, x19
    400053ec:	2a1403e5 	mov	w5, w20
    400053f0:	2a1f03e6 	mov	w6, wzr
    400053f4:	f00000c7 	adrp	x7, 40020000 <arch_mm_config>
    400053f8:	9100e0e7 	add	x7, x7, #0x38
    400053fc:	9400310b 	bl	40011828 <mm_map_level>
    40005400:	36003540 	tbz	w0, #0, 40005aa8 <one_time_init+0x2ba0>
    40005404:	8b180348 	add	x8, x26, x24
    40005408:	8a1b011a 	and	x26, x8, x27
    4000540c:	91400673 	add	x19, x19, #0x1, lsl #12
    40005410:	eb16035f 	cmp	x26, x22
    40005414:	54fffe03 	b.cc	400053d4 <one_time_init+0x24cc>  // b.lo, b.ul, b.last
    40005418:	f9404bf4 	ldr	x20, [sp, #144]
    4000541c:	d2809fa3 	mov	x3, #0x4fd                 	// #1277
    40005420:	f2e03003 	movk	x3, #0x180, lsl #48
    40005424:	f9403be0 	ldr	x0, [sp, #112]
    40005428:	aa1403e1 	mov	x1, x20
    4000542c:	aa1903e2 	mov	x2, x25
    40005430:	52800024 	mov	w4, #0x1                   	// #1
    40005434:	f00000c5 	adrp	x5, 40020000 <arch_mm_config>
    40005438:	9100e0a5 	add	x5, x5, #0x38
    4000543c:	94003077 	bl	40011618 <mm_ptable_identity_map>
    40005440:	3600c700 	tbz	w0, #0, 40006d20 <one_time_init+0x3e18>
    40005444:	394002e8 	ldrb	w8, [x23]
    40005448:	d280d09b 	mov	x27, #0x684                 	// #1668
    4000544c:	f2e0081b 	movk	x27, #0x40, lsl #48
    40005450:	f94053f8 	ldr	x24, [sp, #160]
    40005454:	911223f3 	add	x19, sp, #0x488
    40005458:	f9402bfa 	ldr	x26, [sp, #80]
    4000545c:	34002be8 	cbz	w8, 400059d8 <one_time_init+0x2ad0>
    40005460:	5280c614 	mov	w20, #0x630                 	// #1584
    40005464:	9b144ea8 	madd	x8, x21, x20, x19
    40005468:	3944f109 	ldrb	w9, [x8, #316]
    4000546c:	340019e9 	cbz	w9, 400057a8 <one_time_init+0x28a0>
    40005470:	aa1f03ec 	mov	x12, xzr
    40005474:	9104f108 	add	x8, x8, #0x13c
    40005478:	aa1903f6 	mov	x22, x25
    4000547c:	a900ffe8 	stp	x8, xzr, [sp, #8]
    40005480:	9b144ea8 	madd	x8, x21, x20, x19
    40005484:	5280060a 	mov	w10, #0x30                  	// #48
    40005488:	f90017ec 	str	x12, [sp, #40]
    4000548c:	9b0a2189 	madd	x9, x12, x10, x8
    40005490:	b9414928 	ldr	w8, [x9, #328]
    40005494:	f940a13a 	ldr	x26, [x9, #320]
    40005498:	53144d08 	lsl	w8, w8, #12
    4000549c:	b100075f 	cmn	x26, #0x1
    400054a0:	54000740 	b.eq	40005588 <one_time_init+0x2680>  // b.none
    400054a4:	8b080342 	add	x2, x26, x8
    400054a8:	9b144ea8 	madd	x8, x21, x20, x19
    400054ac:	5280800b 	mov	w11, #0x400                 	// #1024
    400054b0:	9b0a2188 	madd	x8, x12, x10, x8
    400054b4:	d10a136a 	sub	x10, x27, #0x284
    400054b8:	b9414d08 	ldr	w8, [x8, #332]
    400054bc:	121c0509 	and	w9, w8, #0x30
    400054c0:	7100c13f 	cmp	w9, #0x30
    400054c4:	b90023e9 	str	w9, [sp, #32]
    400054c8:	1a9f17e9 	cset	w9, eq  // eq = none
    400054cc:	721e011f 	tst	w8, #0x4
    400054d0:	531f7924 	lsl	w4, w9, #1
    400054d4:	531a6509 	lsl	w9, w8, #6
    400054d8:	927a0529 	and	x9, x9, #0xc0
    400054dc:	9a8b014a 	csel	x10, x10, x11, eq  // eq = none
    400054e0:	721d011f 	tst	w8, #0x8
    400054e4:	5280078b 	mov	w11, #0x3c                  	// #60
    400054e8:	aa090149 	orr	x9, x10, x9
    400054ec:	5280018a 	mov	w10, #0xc                   	// #12
    400054f0:	9a8a016a 	csel	x10, x11, x10, eq  // eq = none
    400054f4:	721b011f 	tst	w8, #0x20
    400054f8:	aa0a0129 	orr	x9, x9, x10
    400054fc:	b249012a 	orr	x10, x9, #0x80000000000000
    40005500:	9a890149 	csel	x9, x10, x9, eq  // eq = none
    40005504:	721a011f 	tst	w8, #0x40
    40005508:	b248012a 	orr	x10, x9, #0x100000000000000
    4000550c:	9a890149 	csel	x9, x10, x9, eq  // eq = none
    40005510:	1280000a 	mov	w10, #0xffffffff            	// #-1
    40005514:	f90027f6 	str	x22, [sp, #72]
    40005518:	f9403bf6 	ldr	x22, [sp, #112]
    4000551c:	f00000d4 	adrp	x20, 40020000 <arch_mm_config>
    40005520:	9100e294 	add	x20, x20, #0x38
    40005524:	aa1603e0 	mov	x0, x22
    40005528:	aa1a03e1 	mov	x1, x26
    4000552c:	aa1403e5 	mov	x5, x20
    40005530:	aa0203f8 	mov	x24, x2
    40005534:	4a481148 	eor	w8, w10, w8, lsr #4
    40005538:	92400108 	and	x8, x8, #0x1
    4000553c:	aa080133 	orr	x19, x9, x8
    40005540:	aa1303e3 	mov	x3, x19
    40005544:	94003035 	bl	40011618 <mm_ptable_identity_map>
    40005548:	36003f40 	tbz	w0, #0, 40005d30 <one_time_init+0x2e28>
    4000554c:	b94023e8 	ldr	w8, [sp, #32]
    40005550:	7100c11f 	cmp	w8, #0x30
    40005554:	52800068 	mov	w8, #0x3                   	// #3
    40005558:	1a9f0504 	csinc	w4, w8, wzr, eq  // eq = none
    4000555c:	aa1603e0 	mov	x0, x22
    40005560:	aa1a03e1 	mov	x1, x26
    40005564:	aa1803e2 	mov	x2, x24
    40005568:	aa1303e3 	mov	x3, x19
    4000556c:	aa1403e5 	mov	x5, x20
    40005570:	aa1803f6 	mov	x22, x24
    40005574:	94003029 	bl	40011618 <mm_ptable_identity_map>
    40005578:	f94027f3 	ldr	x19, [sp, #72]
    4000557c:	aa1a03eb 	mov	x11, x26
    40005580:	370008a0 	tbnz	w0, #0, 40005694 <one_time_init+0x278c>
    40005584:	140005e7 	b	40006d20 <one_time_init+0x3e18>
    40005588:	f94033e9 	ldr	x9, [sp, #96]
    4000558c:	f9400bed 	ldr	x13, [sp, #16]
    40005590:	8b0801ad 	add	x13, x13, x8
    40005594:	f9400129 	ldr	x9, [x9]
    40005598:	f9000bed 	str	x13, [sp, #16]
    4000559c:	eb4905bf 	cmp	x13, x9, lsr #1
    400055a0:	54003d48 	b.hi	40005d48 <one_time_init+0x2e40>  // b.pmore
    400055a4:	cb0802c1 	sub	x1, x22, x8
    400055a8:	9b144ea8 	madd	x8, x21, x20, x19
    400055ac:	5280800b 	mov	w11, #0x400                 	// #1024
    400055b0:	9b0a2188 	madd	x8, x12, x10, x8
    400055b4:	d10a136a 	sub	x10, x27, #0x284
    400055b8:	b9414d08 	ldr	w8, [x8, #332]
    400055bc:	121c0509 	and	w9, w8, #0x30
    400055c0:	7100c13f 	cmp	w9, #0x30
    400055c4:	b90023e9 	str	w9, [sp, #32]
    400055c8:	1a9f17e9 	cset	w9, eq  // eq = none
    400055cc:	721e011f 	tst	w8, #0x4
    400055d0:	531f7924 	lsl	w4, w9, #1
    400055d4:	531a6509 	lsl	w9, w8, #6
    400055d8:	927a0529 	and	x9, x9, #0xc0
    400055dc:	9a8b014a 	csel	x10, x10, x11, eq  // eq = none
    400055e0:	721d011f 	tst	w8, #0x8
    400055e4:	5280078b 	mov	w11, #0x3c                  	// #60
    400055e8:	aa090149 	orr	x9, x10, x9
    400055ec:	5280018a 	mov	w10, #0xc                   	// #12
    400055f0:	9a8a016a 	csel	x10, x11, x10, eq  // eq = none
    400055f4:	721b011f 	tst	w8, #0x20
    400055f8:	aa0a0129 	orr	x9, x9, x10
    400055fc:	b249012a 	orr	x10, x9, #0x80000000000000
    40005600:	9a890149 	csel	x9, x10, x9, eq  // eq = none
    40005604:	721a011f 	tst	w8, #0x40
    40005608:	b248012a 	orr	x10, x9, #0x100000000000000
    4000560c:	9a890149 	csel	x9, x10, x9, eq  // eq = none
    40005610:	1280000a 	mov	w10, #0xffffffff            	// #-1
    40005614:	4a481148 	eor	w8, w10, w8, lsr #4
    40005618:	f9403bfa 	ldr	x26, [sp, #112]
    4000561c:	f00000d4 	adrp	x20, 40020000 <arch_mm_config>
    40005620:	9100e294 	add	x20, x20, #0x38
    40005624:	aa1603e2 	mov	x2, x22
    40005628:	aa1a03e0 	mov	x0, x26
    4000562c:	aa1403e5 	mov	x5, x20
    40005630:	f90027e1 	str	x1, [sp, #72]
    40005634:	92400108 	and	x8, x8, #0x1
    40005638:	aa080133 	orr	x19, x9, x8
    4000563c:	aa1303e3 	mov	x3, x19
    40005640:	94002ff6 	bl	40011618 <mm_ptable_identity_map>
    40005644:	360038c0 	tbz	w0, #0, 40005d5c <one_time_init+0x2e54>
    40005648:	b94023e8 	ldr	w8, [sp, #32]
    4000564c:	7100c11f 	cmp	w8, #0x30
    40005650:	f94027f8 	ldr	x24, [sp, #72]
    40005654:	52800068 	mov	w8, #0x3                   	// #3
    40005658:	1a9f0504 	csinc	w4, w8, wzr, eq  // eq = none
    4000565c:	aa1a03e0 	mov	x0, x26
    40005660:	aa1803e1 	mov	x1, x24
    40005664:	aa1603e2 	mov	x2, x22
    40005668:	aa1303e3 	mov	x3, x19
    4000566c:	aa1403e5 	mov	x5, x20
    40005670:	94002fea 	bl	40011618 <mm_ptable_identity_map>
    40005674:	3600b560 	tbz	w0, #0, 40006d20 <one_time_init+0x3e18>
    40005678:	f00000a0 	adrp	x0, 4001c000 <arch_mm_init.pa_bits_table+0xa68>
    4000567c:	91356c00 	add	x0, x0, #0xd5b
    40005680:	aa1803e1 	mov	x1, x24
    40005684:	aa1603e2 	mov	x2, x22
    40005688:	aa1803f3 	mov	x19, x24
    4000568c:	94002195 	bl	4000dce0 <dlog>
    40005690:	aa1803eb 	mov	x11, x24
    40005694:	90000428 	adrp	x8, 40089000 <dlog_lock_enabled>
    40005698:	3940411a 	ldrb	w26, [x8, #16]
    4000569c:	11000748 	add	w8, w26, #0x1
    400056a0:	12001d09 	and	w9, w8, #0xff
    400056a4:	7100053f 	cmp	w9, #0x1
    400056a8:	f90027f3 	str	x19, [sp, #72]
    400056ac:	5400b689 	b.ls	40006d7c <one_time_init+0x3e74>  // b.plast
    400056b0:	90000429 	adrp	x9, 40089000 <dlog_lock_enabled>
    400056b4:	39405129 	ldrb	w9, [x9, #20]
    400056b8:	92401d0a 	and	x10, x8, #0xff
    400056bc:	8b280d48 	add	x8, x10, w8, uxtb #3
    400056c0:	5282000a 	mov	w10, #0x1000                	// #4096
    400056c4:	9ac82158 	lsl	x24, x10, x8
    400056c8:	913ffeca 	add	x10, x22, #0xfff
    400056cc:	9274cd4a 	and	x10, x10, #0xfffffffffffff000
    400056d0:	9b097f09 	mul	x9, x24, x9
    400056d4:	eb09015f 	cmp	x10, x9
    400056d8:	92748d7c 	and	x28, x11, #0xfffffffff000
    400056dc:	f90013eb 	str	x11, [sp, #32]
    400056e0:	9a8a813b 	csel	x27, x9, x10, hi  // hi = pmore
    400056e4:	eb1b039f 	cmp	x28, x27
    400056e8:	54000322 	b.cs	4000574c <one_time_init+0x2844>  // b.hs, b.nlast
    400056ec:	f94037e9 	ldr	x9, [sp, #104]
    400056f0:	91003108 	add	x8, x8, #0xc
    400056f4:	9ac82788 	lsr	x8, x28, x8
    400056f8:	92402108 	and	x8, x8, #0x1ff
    400056fc:	f9400129 	ldr	x9, [x9]
    40005700:	8b083133 	add	x19, x9, x8, lsl #12
    40005704:	cb1803f4 	neg	x20, x24
    40005708:	d2808783 	mov	x3, #0x43c                 	// #1084
    4000570c:	aa1c03e0 	mov	x0, x28
    40005710:	aa1b03e1 	mov	x1, x27
    40005714:	aa1c03e2 	mov	x2, x28
    40005718:	f2e02803 	movk	x3, #0x140, lsl #48
    4000571c:	aa1303e4 	mov	x4, x19
    40005720:	2a1a03e5 	mov	w5, w26
    40005724:	52800046 	mov	w6, #0x2                   	// #2
    40005728:	f00000c7 	adrp	x7, 40020000 <arch_mm_config>
    4000572c:	9100e0e7 	add	x7, x7, #0x38
    40005730:	9400303e 	bl	40011828 <mm_map_level>
    40005734:	36001d00 	tbz	w0, #0, 40005ad4 <one_time_init+0x2bcc>
    40005738:	8b180388 	add	x8, x28, x24
    4000573c:	8a14011c 	and	x28, x8, x20
    40005740:	91400673 	add	x19, x19, #0x1, lsl #12
    40005744:	eb1b039f 	cmp	x28, x27
    40005748:	54fffe03 	b.cc	40005708 <one_time_init+0x2800>  // b.lo, b.ul, b.last
    4000574c:	f94037e0 	ldr	x0, [sp, #104]
    40005750:	d280879c 	mov	x28, #0x43c                 	// #1084
    40005754:	f2e0281c 	movk	x28, #0x140, lsl #48
    40005758:	f94013e1 	ldr	x1, [sp, #32]
    4000575c:	aa1603e2 	mov	x2, x22
    40005760:	52800064 	mov	w4, #0x3                   	// #3
    40005764:	aa1c03e3 	mov	x3, x28
    40005768:	f00000c5 	adrp	x5, 40020000 <arch_mm_config>
    4000576c:	9100e0a5 	add	x5, x5, #0x38
    40005770:	94002faa 	bl	40011618 <mm_ptable_identity_map>
    40005774:	d280d09b 	mov	x27, #0x684                 	// #1668
    40005778:	f2e0081b 	movk	x27, #0x40, lsl #48
    4000577c:	3600ad20 	tbz	w0, #0, 40006d20 <one_time_init+0x3e18>
    40005780:	f94007e8 	ldr	x8, [sp, #8]
    40005784:	5280c614 	mov	w20, #0x630                 	// #1584
    40005788:	911223f3 	add	x19, sp, #0x488
    4000578c:	f94017ec 	ldr	x12, [sp, #40]
    40005790:	9100058c 	add	x12, x12, #0x1
    40005794:	39400108 	ldrb	w8, [x8]
    40005798:	f94027f6 	ldr	x22, [sp, #72]
    4000579c:	f94053f8 	ldr	x24, [sp, #160]
    400057a0:	eb08019f 	cmp	x12, x8
    400057a4:	54ffe6e3 	b.cc	40005480 <one_time_init+0x2578>  // b.lo, b.ul, b.last
    400057a8:	9b144ea8 	madd	x8, x21, x20, x19
    400057ac:	394b0109 	ldrb	w9, [x8, #704]
    400057b0:	f9403be0 	ldr	x0, [sp, #112]
    400057b4:	900000d6 	adrp	x22, 4001d000 <arch_mm_init.pa_bits_table+0x1a68>
    400057b8:	910906d6 	add	x22, x22, #0x241
    400057bc:	34001029 	cbz	w9, 400059c0 <one_time_init+0x2ab8>
    400057c0:	910b0108 	add	x8, x8, #0x2c0
    400057c4:	aa1f03ea 	mov	x10, xzr
    400057c8:	f90013e8 	str	x8, [sp, #32]
    400057cc:	9b144ea8 	madd	x8, x21, x20, x19
    400057d0:	52800d09 	mov	w9, #0x68                  	// #104
    400057d4:	f90017ea 	str	x10, [sp, #40]
    400057d8:	5280800b 	mov	w11, #0x400                 	// #1024
    400057dc:	9b092148 	madd	x8, x10, x9, x8
    400057e0:	910b2109 	add	x9, x8, #0x2c8
    400057e4:	f9416501 	ldr	x1, [x8, #712]
    400057e8:	b942d108 	ldr	w8, [x8, #720]
    400057ec:	53144d08 	lsl	w8, w8, #12
    400057f0:	8b080022 	add	x2, x1, x8
    400057f4:	b9400d28 	ldr	w8, [x9, #12]
    400057f8:	121c0509 	and	w9, w8, #0x30
    400057fc:	7100c13f 	cmp	w9, #0x30
    40005800:	b9004be9 	str	w9, [sp, #72]
    40005804:	1a9f17e9 	cset	w9, eq  // eq = none
    40005808:	721e011f 	tst	w8, #0x4
    4000580c:	531f7924 	lsl	w4, w9, #1
    40005810:	531a6509 	lsl	w9, w8, #6
    40005814:	d10a136a 	sub	x10, x27, #0x284
    40005818:	9a8b014a 	csel	x10, x10, x11, eq  // eq = none
    4000581c:	721d011f 	tst	w8, #0x8
    40005820:	5280078b 	mov	w11, #0x3c                  	// #60
    40005824:	f90033e1 	str	x1, [sp, #96]
    40005828:	aa0203f8 	mov	x24, x2
    4000582c:	927a0529 	and	x9, x9, #0xc0
    40005830:	aa090149 	orr	x9, x10, x9
    40005834:	5280018a 	mov	w10, #0xc                   	// #12
    40005838:	9a8a016a 	csel	x10, x11, x10, eq  // eq = none
    4000583c:	721b011f 	tst	w8, #0x20
    40005840:	aa0a0129 	orr	x9, x9, x10
    40005844:	b249012a 	orr	x10, x9, #0x80000000000000
    40005848:	9a890149 	csel	x9, x10, x9, eq  // eq = none
    4000584c:	721a011f 	tst	w8, #0x40
    40005850:	b248012a 	orr	x10, x9, #0x100000000000000
    40005854:	9a890149 	csel	x9, x10, x9, eq  // eq = none
    40005858:	1280000a 	mov	w10, #0xffffffff            	// #-1
    4000585c:	4a481148 	eor	w8, w10, w8, lsr #4
    40005860:	92400108 	and	x8, x8, #0x1
    40005864:	aa080133 	orr	x19, x9, x8
    40005868:	f00000da 	adrp	x26, 40020000 <arch_mm_config>
    4000586c:	9100e35a 	add	x26, x26, #0x38
    40005870:	aa1a03e5 	mov	x5, x26
    40005874:	aa0003f4 	mov	x20, x0
    40005878:	aa1303e3 	mov	x3, x19
    4000587c:	94002f67 	bl	40011618 <mm_ptable_identity_map>
    40005880:	360025e0 	tbz	w0, #0, 40005d3c <one_time_init+0x2e34>
    40005884:	b9404be8 	ldr	w8, [sp, #72]
    40005888:	7100c11f 	cmp	w8, #0x30
    4000588c:	f94033f6 	ldr	x22, [sp, #96]
    40005890:	52800068 	mov	w8, #0x3                   	// #3
    40005894:	1a9f0504 	csinc	w4, w8, wzr, eq  // eq = none
    40005898:	aa1403e0 	mov	x0, x20
    4000589c:	aa1603e1 	mov	x1, x22
    400058a0:	aa1803e2 	mov	x2, x24
    400058a4:	aa1303e3 	mov	x3, x19
    400058a8:	aa1a03e5 	mov	x5, x26
    400058ac:	94002f5b 	bl	40011618 <mm_ptable_identity_map>
    400058b0:	3600a380 	tbz	w0, #0, 40006d20 <one_time_init+0x3e18>
    400058b4:	90000428 	adrp	x8, 40089000 <dlog_lock_enabled>
    400058b8:	3940411a 	ldrb	w26, [x8, #16]
    400058bc:	11000748 	add	w8, w26, #0x1
    400058c0:	12001d09 	and	w9, w8, #0xff
    400058c4:	7100053f 	cmp	w9, #0x1
    400058c8:	5400a5a9 	b.ls	40006d7c <one_time_init+0x3e74>  // b.plast
    400058cc:	90000429 	adrp	x9, 40089000 <dlog_lock_enabled>
    400058d0:	39405129 	ldrb	w9, [x9, #20]
    400058d4:	92401d0a 	and	x10, x8, #0xff
    400058d8:	8b280d48 	add	x8, x10, w8, uxtb #3
    400058dc:	5282000a 	mov	w10, #0x1000                	// #4096
    400058e0:	aa1803f4 	mov	x20, x24
    400058e4:	9ac82158 	lsl	x24, x10, x8
    400058e8:	913ffe8a 	add	x10, x20, #0xfff
    400058ec:	9274cd4a 	and	x10, x10, #0xfffffffffffff000
    400058f0:	9b097f09 	mul	x9, x24, x9
    400058f4:	eb09015f 	cmp	x10, x9
    400058f8:	92748edc 	and	x28, x22, #0xfffffffff000
    400058fc:	9a8a813b 	csel	x27, x9, x10, hi  // hi = pmore
    40005900:	eb1b039f 	cmp	x28, x27
    40005904:	54000322 	b.cs	40005968 <one_time_init+0x2a60>  // b.hs, b.nlast
    40005908:	f94037e9 	ldr	x9, [sp, #104]
    4000590c:	91003108 	add	x8, x8, #0xc
    40005910:	9ac82788 	lsr	x8, x28, x8
    40005914:	92402108 	and	x8, x8, #0x1ff
    40005918:	f9400129 	ldr	x9, [x9]
    4000591c:	8b083133 	add	x19, x9, x8, lsl #12
    40005920:	cb1803f6 	neg	x22, x24
    40005924:	d2808783 	mov	x3, #0x43c                 	// #1084
    40005928:	aa1c03e0 	mov	x0, x28
    4000592c:	aa1b03e1 	mov	x1, x27
    40005930:	aa1c03e2 	mov	x2, x28
    40005934:	f2e02803 	movk	x3, #0x140, lsl #48
    40005938:	aa1303e4 	mov	x4, x19
    4000593c:	2a1a03e5 	mov	w5, w26
    40005940:	52800046 	mov	w6, #0x2                   	// #2
    40005944:	f00000c7 	adrp	x7, 40020000 <arch_mm_config>
    40005948:	9100e0e7 	add	x7, x7, #0x38
    4000594c:	94002fb7 	bl	40011828 <mm_map_level>
    40005950:	36000c80 	tbz	w0, #0, 40005ae0 <one_time_init+0x2bd8>
    40005954:	8b180388 	add	x8, x28, x24
    40005958:	8a16011c 	and	x28, x8, x22
    4000595c:	91400673 	add	x19, x19, #0x1, lsl #12
    40005960:	eb1b039f 	cmp	x28, x27
    40005964:	54fffe03 	b.cc	40005924 <one_time_init+0x2a1c>  // b.lo, b.ul, b.last
    40005968:	a94603e1 	ldp	x1, x0, [sp, #96]
    4000596c:	d280879c 	mov	x28, #0x43c                 	// #1084
    40005970:	f2e0281c 	movk	x28, #0x140, lsl #48
    40005974:	aa1403e2 	mov	x2, x20
    40005978:	52800064 	mov	w4, #0x3                   	// #3
    4000597c:	aa1c03e3 	mov	x3, x28
    40005980:	f00000c5 	adrp	x5, 40020000 <arch_mm_config>
    40005984:	9100e0a5 	add	x5, x5, #0x38
    40005988:	94002f24 	bl	40011618 <mm_ptable_identity_map>
    4000598c:	36009ca0 	tbz	w0, #0, 40006d20 <one_time_init+0x3e18>
    40005990:	a9422be8 	ldp	x8, x10, [sp, #32]
    40005994:	9100054a 	add	x10, x10, #0x1
    40005998:	39400108 	ldrb	w8, [x8]
    4000599c:	f9403be0 	ldr	x0, [sp, #112]
    400059a0:	d280d09b 	mov	x27, #0x684                 	// #1668
    400059a4:	f2e0081b 	movk	x27, #0x40, lsl #48
    400059a8:	900000d6 	adrp	x22, 4001d000 <arch_mm_init.pa_bits_table+0x1a68>
    400059ac:	910906d6 	add	x22, x22, #0x241
    400059b0:	5280c614 	mov	w20, #0x630                 	// #1584
    400059b4:	911223f3 	add	x19, sp, #0x488
    400059b8:	eb08015f 	cmp	x10, x8
    400059bc:	54fff083 	b.cc	400057cc <one_time_init+0x28c4>  // b.lo, b.ul, b.last
    400059c0:	9b144ea8 	madd	x8, x21, x20, x19
    400059c4:	f9408108 	ldr	x8, [x8, #256]
    400059c8:	f9404be9 	ldr	x9, [sp, #144]
    400059cc:	f94053f8 	ldr	x24, [sp, #160]
    400059d0:	f9402bfa 	ldr	x26, [sp, #80]
    400059d4:	8b080134 	add	x20, x9, x8
    400059d8:	5280c608 	mov	w8, #0x630                 	// #1584
    400059dc:	911223e9 	add	x9, sp, #0x488
    400059e0:	9b0826b3 	madd	x19, x21, x8, x9
    400059e4:	f9402ff6 	ldr	x22, [sp, #88]
    400059e8:	910052c0 	add	x0, x22, #0x14
    400059ec:	52801082 	mov	w2, #0x84                  	// #132
    400059f0:	91012261 	add	x1, x19, #0x48
    400059f4:	94002200 	bl	4000e1f4 <memcpy>
    400059f8:	295aa668 	ldp	w8, w9, [x19, #212]
    400059fc:	aa1603e2 	mov	x2, x22
    40005a00:	295bae6a 	ldp	w10, w11, [x19, #220]
    40005a04:	2901aeca 	stp	w10, w11, [x22, #12]
    40005a08:	2900a6c8 	stp	w8, w9, [x22, #4]
    40005a0c:	394002e8 	ldrb	w8, [x23]
    40005a10:	900000d6 	adrp	x22, 4001d000 <arch_mm_init.pa_bits_table+0x1a68>
    40005a14:	910906d6 	add	x22, x22, #0x241
    40005a18:	34000bc8 	cbz	w8, 40005b90 <one_time_init+0x2c88>
    40005a1c:	5280c613 	mov	w19, #0x630                 	// #1584
    40005a20:	911223f7 	add	x23, sp, #0x488
    40005a24:	9b135ea8 	madd	x8, x21, x19, x23
    40005a28:	39444108 	ldrb	w8, [x8, #272]
    40005a2c:	34000248 	cbz	w8, 40005a74 <one_time_init+0x2b6c>
    40005a30:	9b135ea8 	madd	x8, x21, x19, x23
    40005a34:	a9522109 	ldp	x9, x8, [x8, #288]
    40005a38:	f9400103 	ldr	x3, [x8]
    40005a3c:	f9400124 	ldr	x4, [x9]
    40005a40:	b9400905 	ldr	w5, [x8, #8]
    40005a44:	d10283a0 	sub	x0, x29, #0xa0
    40005a48:	90000421 	adrp	x1, 40089000 <dlog_lock_enabled>
    40005a4c:	91008021 	add	x1, x1, #0x20
    40005a50:	f00000c6 	adrp	x6, 40020000 <arch_mm_config>
    40005a54:	9100e0c6 	add	x6, x6, #0x38
    40005a58:	940006d4 	bl	400075a8 <api_vm_configure_pages>
    40005a5c:	f85603a8 	ldur	x8, [x29, #-160]
    40005a60:	52800c29 	mov	w9, #0x61                  	// #97
    40005a64:	72b08009 	movk	w9, #0x8400, lsl #16
    40005a68:	f9402fe2 	ldr	x2, [sp, #88]
    40005a6c:	eb09011f 	cmp	x8, x9
    40005a70:	540006a1 	b.ne	40005b44 <one_time_init+0x2c3c>  // b.any
    40005a74:	9b135ea8 	madd	x8, x21, x19, x23
    40005a78:	79421909 	ldrh	w9, [x8, #268]
    40005a7c:	52851f4c 	mov	w12, #0x28fa                	// #10490
    40005a80:	782c6849 	strh	w9, [x2, x12]
    40005a84:	f000056b 	adrp	x11, 400b4000 <other_world+0x1bd0>
    40005a88:	f946bd68 	ldr	x8, [x11, #3448]
    40005a8c:	b40006a8 	cbz	x8, 40005b60 <one_time_init+0x2c58>
    40005a90:	786c690a 	ldrh	w10, [x8, x12]
    40005a94:	6b09015f 	cmp	w10, w9
    40005a98:	54000682 	b.cs	40005b68 <one_time_init+0x2c60>  // b.hs, b.nlast
    40005a9c:	f9402fe2 	ldr	x2, [sp, #88]
    40005aa0:	f906bd62 	str	x2, [x11, #3448]
    40005aa4:	1400003a 	b	40005b8c <one_time_init+0x2c84>
    40005aa8:	f00000a0 	adrp	x0, 4001c000 <arch_mm_init.pa_bits_table+0xa68>
    40005aac:	913fcc00 	add	x0, x0, #0xff3
    40005ab0:	9400208c 	bl	4000dce0 <dlog>
    40005ab4:	d280d09b 	mov	x27, #0x684                 	// #1668
    40005ab8:	f94023e8 	ldr	x8, [sp, #64]
    40005abc:	889ffd1f 	stlr	wzr, [x8]
    40005ac0:	f2e0081b 	movk	x27, #0x40, lsl #48
    40005ac4:	900000d6 	adrp	x22, 4001d000 <arch_mm_init.pa_bits_table+0x1a68>
    40005ac8:	910906d6 	add	x22, x22, #0x241
    40005acc:	5280c614 	mov	w20, #0x630                 	// #1584
    40005ad0:	17fffca6 	b	40004d68 <one_time_init+0x1e60>
    40005ad4:	900000c0 	adrp	x0, 4001d000 <arch_mm_init.pa_bits_table+0x1a68>
    40005ad8:	9132e400 	add	x0, x0, #0xcb9
    40005adc:	14000003 	b	40005ae8 <one_time_init+0x2be0>
    40005ae0:	900000c0 	adrp	x0, 4001d000 <arch_mm_init.pa_bits_table+0x1a68>
    40005ae4:	9133f400 	add	x0, x0, #0xcfd
    40005ae8:	d280d09b 	mov	x27, #0x684                 	// #1668
    40005aec:	d280879c 	mov	x28, #0x43c                 	// #1084
    40005af0:	f2e0081b 	movk	x27, #0x40, lsl #48
    40005af4:	f2e0281c 	movk	x28, #0x140, lsl #48
    40005af8:	900000d6 	adrp	x22, 4001d000 <arch_mm_init.pa_bits_table+0x1a68>
    40005afc:	910906d6 	add	x22, x22, #0x241
    40005b00:	f94053f8 	ldr	x24, [sp, #160]
    40005b04:	5280c614 	mov	w20, #0x630                 	// #1584
    40005b08:	911223f3 	add	x19, sp, #0x488
    40005b0c:	94002075 	bl	4000dce0 <dlog>
    40005b10:	f94023e8 	ldr	x8, [sp, #64]
    40005b14:	889ffd1f 	stlr	wzr, [x8]
    40005b18:	17fffbde 	b	40004a90 <one_time_init+0x1b88>
    40005b1c:	d280d09b 	mov	x27, #0x684                 	// #1668
    40005b20:	900000c0 	adrp	x0, 4001d000 <arch_mm_init.pa_bits_table+0x1a68>
    40005b24:	912e8000 	add	x0, x0, #0xba0
    40005b28:	f2e0081b 	movk	x27, #0x40, lsl #48
    40005b2c:	900000d6 	adrp	x22, 4001d000 <arch_mm_init.pa_bits_table+0x1a68>
    40005b30:	910906d6 	add	x22, x22, #0x241
    40005b34:	17fffd0e 	b	40004f6c <one_time_init+0x2064>
    40005b38:	900000c0 	adrp	x0, 4001d000 <arch_mm_init.pa_bits_table+0x1a68>
    40005b3c:	912e8000 	add	x0, x0, #0xba0
    40005b40:	17fffd04 	b	40004f50 <one_time_init+0x2048>
    40005b44:	900000c0 	adrp	x0, 4001d000 <arch_mm_init.pa_bits_table+0x1a68>
    40005b48:	91012000 	add	x0, x0, #0x48
    40005b4c:	94002065 	bl	4000dce0 <dlog>
    40005b50:	f94023e8 	ldr	x8, [sp, #64]
    40005b54:	889ffd1f 	stlr	wzr, [x8]
    40005b58:	aa1303f4 	mov	x20, x19
    40005b5c:	17fffd08 	b	40004f7c <one_time_init+0x2074>
    40005b60:	f906bd62 	str	x2, [x11, #3448]
    40005b64:	1400000b 	b	40005b90 <one_time_init+0x2c88>
    40005b68:	f9402fe2 	ldr	x2, [sp, #88]
    40005b6c:	aa0803ea 	mov	x10, x8
    40005b70:	f9548108 	ldr	x8, [x8, #10496]
    40005b74:	b40000a8 	cbz	x8, 40005b88 <one_time_init+0x2c80>
    40005b78:	786c690b 	ldrh	w11, [x8, x12]
    40005b7c:	6b09017f 	cmp	w11, w9
    40005b80:	f9402fe2 	ldr	x2, [sp, #88]
    40005b84:	54ffff42 	b.cs	40005b6c <one_time_init+0x2c64>  // b.hs, b.nlast
    40005b88:	f9148142 	str	x2, [x10, #10496]
    40005b8c:	f9148048 	str	x8, [x2, #10496]
    40005b90:	f9548c48 	ldr	x8, [x2, #10520]
    40005b94:	52800749 	mov	w9, #0x3a                  	// #58
    40005b98:	aa090109 	orr	x9, x8, x9
    40005b9c:	f9148c49 	str	x9, [x2, #10520]
    40005ba0:	79400049 	ldrh	w9, [x2]
    40005ba4:	7100053f 	cmp	w9, #0x1
    40005ba8:	54000060 	b.eq	40005bb4 <one_time_init+0x2cac>  // b.none
    40005bac:	b2401908 	orr	x8, x8, #0x7f
    40005bb0:	f9148c48 	str	x8, [x2, #10520]
    40005bb4:	f9401fe8 	ldr	x8, [sp, #56]
    40005bb8:	900000c0 	adrp	x0, 4001d000 <arch_mm_init.pa_bits_table+0x1a68>
    40005bbc:	9102d400 	add	x0, x0, #0xb5
    40005bc0:	79400101 	ldrh	w1, [x8]
    40005bc4:	f9404be2 	ldr	x2, [sp, #144]
    40005bc8:	94002046 	bl	4000dce0 <dlog>
    40005bcc:	f9402fea 	ldr	x10, [sp, #88]
    40005bd0:	79413948 	ldrh	w8, [x10, #156]
    40005bd4:	340091c8 	cbz	w8, 40006e0c <one_time_init+0x3f04>
    40005bd8:	b9408be8 	ldr	w8, [sp, #136]
    40005bdc:	7100011f 	cmp	w8, #0x0
    40005be0:	f9404fe8 	ldr	x8, [sp, #152]
    40005be4:	f9401be9 	ldr	x9, [sp, #48]
    40005be8:	9a890115 	csel	x21, x8, x9, eq  // eq = none
    40005bec:	f9405948 	ldr	x8, [x10, #176]
    40005bf0:	79400108 	ldrh	w8, [x8]
    40005bf4:	7100051f 	cmp	w8, #0x1
    40005bf8:	54009b80 	b.eq	40006f68 <one_time_init+0x4060>  // b.none
    40005bfc:	91028153 	add	x19, x10, #0xa0
    40005c00:	52800029 	mov	w9, #0x1                   	// #1
    40005c04:	d50320bf 	sevl
    40005c08:	d503205f 	wfe
    40005c0c:	885ffe68 	ldaxr	w8, [x19]
    40005c10:	35ffffc8 	cbnz	w8, 40005c08 <one_time_init+0x2d00>
    40005c14:	88087e69 	stxr	w8, w9, [x19]
    40005c18:	35ffffa8 	cbnz	w8, 40005c0c <one_time_init+0x2d04>
    40005c1c:	b940a548 	ldr	w8, [x10, #164]
    40005c20:	51000508 	sub	w8, w8, #0x1
    40005c24:	7100151f 	cmp	w8, #0x5
    40005c28:	54000103 	b.cc	40005c48 <one_time_init+0x2d40>  // b.lo, b.ul, b.last
    40005c2c:	aa1303e0 	mov	x0, x19
    40005c30:	aa0a03f6 	mov	x22, x10
    40005c34:	940032fe 	bl	4001282c <arch_regs_reset>
    40005c38:	52800028 	mov	w8, #0x1                   	// #1
    40005c3c:	f900ded4 	str	x20, [x22, #440]
    40005c40:	f90062d5 	str	x21, [x22, #192]
    40005c44:	b900a6c8 	str	w8, [x22, #164]
    40005c48:	889ffe7f 	stlr	wzr, [x19]
    40005c4c:	f94023e8 	ldr	x8, [sp, #64]
    40005c50:	889ffd1f 	stlr	wzr, [x8]
    40005c54:	90000428 	adrp	x8, 40089000 <dlog_lock_enabled>
    40005c58:	39404114 	ldrb	w20, [x8, #16]
    40005c5c:	11000688 	add	w8, w20, #0x1
    40005c60:	12001d09 	and	w9, w8, #0xff
    40005c64:	7100053f 	cmp	w9, #0x1
    40005c68:	540088a9 	b.ls	40006d7c <one_time_init+0x3e74>  // b.plast
    40005c6c:	90000429 	adrp	x9, 40089000 <dlog_lock_enabled>
    40005c70:	39405129 	ldrb	w9, [x9, #20]
    40005c74:	92401d0a 	and	x10, x8, #0xff
    40005c78:	8b280d48 	add	x8, x10, w8, uxtb #3
    40005c7c:	5282000a 	mov	w10, #0x1000                	// #4096
    40005c80:	9ac82155 	lsl	x21, x10, x8
    40005c84:	f9400fea 	ldr	x10, [sp, #24]
    40005c88:	9b097ea9 	mul	x9, x21, x9
    40005c8c:	eb09015f 	cmp	x10, x9
    40005c90:	9a8a8136 	csel	x22, x9, x10, hi  // hi = pmore
    40005c94:	eb16035f 	cmp	x26, x22
    40005c98:	54000302 	b.cs	40005cf8 <one_time_init+0x2df0>  // b.hs, b.nlast
    40005c9c:	f94037e9 	ldr	x9, [sp, #104]
    40005ca0:	91003108 	add	x8, x8, #0xc
    40005ca4:	9ac82748 	lsr	x8, x26, x8
    40005ca8:	92402108 	and	x8, x8, #0x1ff
    40005cac:	f9400129 	ldr	x9, [x9]
    40005cb0:	8b083133 	add	x19, x9, x8, lsl #12
    40005cb4:	cb1503f7 	neg	x23, x21
    40005cb8:	aa1a03e0 	mov	x0, x26
    40005cbc:	aa1603e1 	mov	x1, x22
    40005cc0:	aa1a03e2 	mov	x2, x26
    40005cc4:	aa1c03e3 	mov	x3, x28
    40005cc8:	aa1303e4 	mov	x4, x19
    40005ccc:	2a1403e5 	mov	w5, w20
    40005cd0:	52800046 	mov	w6, #0x2                   	// #2
    40005cd4:	f00000c7 	adrp	x7, 40020000 <arch_mm_config>
    40005cd8:	9100e0e7 	add	x7, x7, #0x38
    40005cdc:	94002ed3 	bl	40011828 <mm_map_level>
    40005ce0:	36009540 	tbz	w0, #0, 40006f88 <one_time_init+0x4080>
    40005ce4:	8b150348 	add	x8, x26, x21
    40005ce8:	8a17011a 	and	x26, x8, x23
    40005cec:	91400673 	add	x19, x19, #0x1, lsl #12
    40005cf0:	eb16035f 	cmp	x26, x22
    40005cf4:	54fffe23 	b.cc	40005cb8 <one_time_init+0x2db0>  // b.lo, b.ul, b.last
    40005cf8:	f94037e0 	ldr	x0, [sp, #104]
    40005cfc:	aa1903e2 	mov	x2, x25
    40005d00:	aa1c03e3 	mov	x3, x28
    40005d04:	f9404be1 	ldr	x1, [sp, #144]
    40005d08:	52800064 	mov	w4, #0x3                   	// #3
    40005d0c:	f00000c5 	adrp	x5, 40020000 <arch_mm_config>
    40005d10:	9100e0a5 	add	x5, x5, #0x38
    40005d14:	94002e41 	bl	40011618 <mm_ptable_identity_map>
    40005d18:	900000d6 	adrp	x22, 4001d000 <arch_mm_init.pa_bits_table+0x1a68>
    40005d1c:	910906d6 	add	x22, x22, #0x241
    40005d20:	5280c614 	mov	w20, #0x630                 	// #1584
    40005d24:	911223f3 	add	x19, sp, #0x488
    40005d28:	37076ba0 	tbnz	w0, #0, 40004a9c <one_time_init+0x1b94>
    40005d2c:	140003fd 	b	40006d20 <one_time_init+0x3e18>
    40005d30:	900000c0 	adrp	x0, 4001d000 <arch_mm_init.pa_bits_table+0x1a68>
    40005d34:	910d3400 	add	x0, x0, #0x34d
    40005d38:	17ffff70 	b	40005af8 <one_time_init+0x2bf0>
    40005d3c:	900000c0 	adrp	x0, 4001d000 <arch_mm_init.pa_bits_table+0x1a68>
    40005d40:	910dfc00 	add	x0, x0, #0x37f
    40005d44:	17ffff6f 	b	40005b00 <one_time_init+0x2bf8>
    40005d48:	d00000a0 	adrp	x0, 4001b000 <rodata_begin>
    40005d4c:	9127f000 	add	x0, x0, #0x9fc
    40005d50:	900000d6 	adrp	x22, 4001d000 <arch_mm_init.pa_bits_table+0x1a68>
    40005d54:	910906d6 	add	x22, x22, #0x241
    40005d58:	17ffff6d 	b	40005b0c <one_time_init+0x2c04>
    40005d5c:	900000c0 	adrp	x0, 4001d000 <arch_mm_init.pa_bits_table+0x1a68>
    40005d60:	910d3400 	add	x0, x0, #0x34d
    40005d64:	900000d6 	adrp	x22, 4001d000 <arch_mm_init.pa_bits_table+0x1a68>
    40005d68:	910906d6 	add	x22, x22, #0x241
    40005d6c:	17ffff66 	b	40005b04 <one_time_init+0x2bfc>
    40005d70:	91004280 	add	x0, x20, #0x10
    40005d74:	cb140102 	sub	x2, x8, x20
    40005d78:	aa1403e1 	mov	x1, x20
    40005d7c:	9400207a 	bl	4000df64 <memmove_s>
    40005d80:	f9401beb 	ldr	x11, [sp, #48]
    40005d84:	91001293 	add	x19, x20, #0x4
    40005d88:	aa1303e0 	mov	x0, x19
    40005d8c:	3940956a 	ldrb	w10, [x11, #37]
    40005d90:	39409168 	ldrb	w8, [x11, #36]
    40005d94:	39403169 	ldrb	w9, [x11, #12]
    40005d98:	53081d29 	lsl	w9, w9, #24
    40005d9c:	53081d08 	lsl	w8, w8, #24
    40005da0:	33101d48 	bfi	w8, w10, #16, #8
    40005da4:	3940356a 	ldrb	w10, [x11, #13]
    40005da8:	33101d49 	bfi	w9, w10, #16, #8
    40005dac:	3940996a 	ldrb	w10, [x11, #38]
    40005db0:	33181d48 	bfi	w8, w10, #8, #8
    40005db4:	3940396a 	ldrb	w10, [x11, #14]
    40005db8:	33181d49 	bfi	w9, w10, #8, #8
    40005dbc:	39409d6a 	ldrb	w10, [x11, #39]
    40005dc0:	2a0a0108 	orr	w8, w8, w10
    40005dc4:	39403d6a 	ldrb	w10, [x11, #15]
    40005dc8:	11004108 	add	w8, w8, #0x10
    40005dcc:	5ac00908 	rev	w8, w8
    40005dd0:	b9002568 	str	w8, [x11, #36]
    40005dd4:	2a0a0129 	orr	w9, w9, w10
    40005dd8:	11004128 	add	w8, w9, #0x10
    40005ddc:	5ac00908 	rev	w8, w8
    40005de0:	b9000d68 	str	w8, [x11, #12]
    40005de4:	52a02008 	mov	w8, #0x1000000             	// #16777216
    40005de8:	52a10001 	mov	w1, #0x8000000             	// #134217728
    40005dec:	52800102 	mov	w2, #0x8                   	// #8
    40005df0:	b9000288 	str	w8, [x20]
    40005df4:	94001fd9 	bl	4000dd58 <memset_s>
    40005df8:	aa1303e0 	mov	x0, x19
    40005dfc:	52a10001 	mov	w1, #0x8000000             	// #134217728
    40005e00:	d00000a2 	adrp	x2, 4001b000 <rodata_begin>
    40005e04:	911bd042 	add	x2, x2, #0x6f4
    40005e08:	528000c3 	mov	w3, #0x6                   	// #6
    40005e0c:	94001ff7 	bl	4000dde8 <memcpy_s>
    40005e10:	52a04008 	mov	w8, #0x2000000             	// #33554432
    40005e14:	b9000e88 	str	w8, [x20, #12]
    40005e18:	f9402be8 	ldr	x8, [sp, #80]
    40005e1c:	37f80528 	tbnz	w8, #31, 40005ec0 <one_time_init+0x2fb8>
    40005e20:	528001c8 	mov	w8, #0xe                   	// #14
    40005e24:	b4000068 	cbz	x8, 40005e30 <one_time_init+0x2f28>
    40005e28:	d1000508 	sub	x8, x8, #0x1
    40005e2c:	b5ffffe8 	cbnz	x8, 40005e28 <one_time_init+0x2f20>
    40005e30:	f9401be0 	ldr	x0, [sp, #48]
    40005e34:	910363e4 	add	x4, sp, #0xd8
    40005e38:	910373e5 	add	x5, sp, #0xdc
    40005e3c:	b9404be1 	ldr	w1, [sp, #72]
    40005e40:	d00000a2 	adrp	x2, 4001b000 <rodata_begin>
    40005e44:	91233442 	add	x2, x2, #0x8cd
    40005e48:	528001c3 	mov	w3, #0xe                   	// #14
    40005e4c:	94002531 	bl	4000f310 <fdt_get_property_namelen_>
    40005e50:	b4000520 	cbz	x0, 40005ef4 <one_time_init+0x2fec>
    40005e54:	f9401bea 	ldr	x10, [sp, #48]
    40005e58:	39405148 	ldrb	w8, [x10, #20]
    40005e5c:	39405549 	ldrb	w9, [x10, #21]
    40005e60:	53081d08 	lsl	w8, w8, #24
    40005e64:	33101d28 	bfi	w8, w9, #16, #8
    40005e68:	39405949 	ldrb	w9, [x10, #22]
    40005e6c:	33181d28 	bfi	w8, w9, #8, #8
    40005e70:	39405d49 	ldrb	w9, [x10, #23]
    40005e74:	2a090108 	orr	w8, w8, w9
    40005e78:	71003d1f 	cmp	w8, #0xf
    40005e7c:	54000288 	b.hi	40005ecc <one_time_init+0x2fc4>  // b.pmore
    40005e80:	b940dfe8 	ldr	w8, [sp, #220]
    40005e84:	11001108 	add	w8, w8, #0x4
    40005e88:	7200091f 	tst	w8, #0x7
    40005e8c:	54000200 	b.eq	40005ecc <one_time_init+0x2fc4>  // b.none
    40005e90:	39401008 	ldrb	w8, [x0, #4]
    40005e94:	53081d08 	lsl	w8, w8, #24
    40005e98:	39401409 	ldrb	w9, [x0, #5]
    40005e9c:	33101d28 	bfi	w8, w9, #16, #8
    40005ea0:	39401809 	ldrb	w9, [x0, #6]
    40005ea4:	33181d28 	bfi	w8, w9, #8, #8
    40005ea8:	39401c09 	ldrb	w9, [x0, #7]
    40005eac:	2a090108 	orr	w8, w8, w9
    40005eb0:	7100211f 	cmp	w8, #0x8
    40005eb4:	540000c3 	b.cc	40005ecc <one_time_init+0x2fc4>  // b.lo, b.ul, b.last
    40005eb8:	91004008 	add	x8, x0, #0x10
    40005ebc:	14000005 	b	40005ed0 <one_time_init+0x2fc8>
    40005ec0:	f94053f8 	ldr	x24, [sp, #160]
    40005ec4:	f9402be1 	ldr	x1, [sp, #80]
    40005ec8:	17fffcb3 	b	40005194 <one_time_init+0x228c>
    40005ecc:	91003008 	add	x8, x0, #0xc
    40005ed0:	b940dbe9 	ldr	w9, [sp, #216]
    40005ed4:	7100113f 	cmp	w9, #0x4
    40005ed8:	540000a1 	b.ne	40005eec <one_time_init+0x2fe4>  // b.any
    40005edc:	b9400108 	ldr	w8, [x8]
    40005ee0:	5ac00913 	rev	w19, w8
    40005ee4:	7100167f 	cmp	w19, #0x5
    40005ee8:	54000083 	b.cc	40005ef8 <one_time_init+0x2ff0>  // b.lo, b.ul, b.last
    40005eec:	128001b4 	mov	w20, #0xfffffff2            	// #-14
    40005ef0:	140000a0 	b	40006170 <one_time_init+0x3268>
    40005ef4:	b940dbf3 	ldr	w19, [sp, #216]
    40005ef8:	3100067f 	cmn	w19, #0x1
    40005efc:	540000c0 	b.eq	40005f14 <one_time_init+0x300c>  // b.none
    40005f00:	128001b4 	mov	w20, #0xfffffff2            	// #-14
    40005f04:	34001373 	cbz	w19, 40006170 <one_time_init+0x3268>
    40005f08:	2a1303f4 	mov	w20, w19
    40005f0c:	36f80073 	tbz	w19, #31, 40005f18 <one_time_init+0x3010>
    40005f10:	14000098 	b	40006170 <one_time_init+0x3268>
    40005f14:	52800053 	mov	w19, #0x2                   	// #2
    40005f18:	52800168 	mov	w8, #0xb                   	// #11
    40005f1c:	b4000068 	cbz	x8, 40005f28 <one_time_init+0x3020>
    40005f20:	d1000508 	sub	x8, x8, #0x1
    40005f24:	b5ffffe8 	cbnz	x8, 40005f20 <one_time_init+0x3018>
    40005f28:	f9401be0 	ldr	x0, [sp, #48]
    40005f2c:	910363e4 	add	x4, sp, #0xd8
    40005f30:	910373e5 	add	x5, sp, #0xdc
    40005f34:	b9404be1 	ldr	w1, [sp, #72]
    40005f38:	d00000a2 	adrp	x2, 4001b000 <rodata_begin>
    40005f3c:	91237042 	add	x2, x2, #0x8dc
    40005f40:	52800163 	mov	w3, #0xb                   	// #11
    40005f44:	940024f3 	bl	4000f310 <fdt_get_property_namelen_>
    40005f48:	b40004e0 	cbz	x0, 40005fe4 <one_time_init+0x30dc>
    40005f4c:	f9401bea 	ldr	x10, [sp, #48]
    40005f50:	39405148 	ldrb	w8, [x10, #20]
    40005f54:	39405549 	ldrb	w9, [x10, #21]
    40005f58:	53081d08 	lsl	w8, w8, #24
    40005f5c:	33101d28 	bfi	w8, w9, #16, #8
    40005f60:	39405949 	ldrb	w9, [x10, #22]
    40005f64:	33181d28 	bfi	w8, w9, #8, #8
    40005f68:	39405d49 	ldrb	w9, [x10, #23]
    40005f6c:	2a090108 	orr	w8, w8, w9
    40005f70:	71003d1f 	cmp	w8, #0xf
    40005f74:	54000228 	b.hi	40005fb8 <one_time_init+0x30b0>  // b.pmore
    40005f78:	b940dfe8 	ldr	w8, [sp, #220]
    40005f7c:	11001108 	add	w8, w8, #0x4
    40005f80:	7200091f 	tst	w8, #0x7
    40005f84:	540001a0 	b.eq	40005fb8 <one_time_init+0x30b0>  // b.none
    40005f88:	39401008 	ldrb	w8, [x0, #4]
    40005f8c:	53081d08 	lsl	w8, w8, #24
    40005f90:	39401409 	ldrb	w9, [x0, #5]
    40005f94:	33101d28 	bfi	w8, w9, #16, #8
    40005f98:	39401809 	ldrb	w9, [x0, #6]
    40005f9c:	33181d28 	bfi	w8, w9, #8, #8
    40005fa0:	39401c09 	ldrb	w9, [x0, #7]
    40005fa4:	2a090108 	orr	w8, w8, w9
    40005fa8:	7100211f 	cmp	w8, #0x8
    40005fac:	54000063 	b.cc	40005fb8 <one_time_init+0x30b0>  // b.lo, b.ul, b.last
    40005fb0:	91004009 	add	x9, x0, #0x10
    40005fb4:	14000002 	b	40005fbc <one_time_init+0x30b4>
    40005fb8:	91003009 	add	x9, x0, #0xc
    40005fbc:	b940dbe8 	ldr	w8, [sp, #216]
    40005fc0:	7100111f 	cmp	w8, #0x4
    40005fc4:	128001a8 	mov	w8, #0xfffffff2            	// #-14
    40005fc8:	54000141 	b.ne	40005ff0 <one_time_init+0x30e8>  // b.any
    40005fcc:	b9400128 	ldr	w8, [x9]
    40005fd0:	128001a9 	mov	w9, #0xfffffff2            	// #-14
    40005fd4:	5ac00908 	rev	w8, w8
    40005fd8:	7100111f 	cmp	w8, #0x4
    40005fdc:	1a888128 	csel	w8, w9, w8, hi  // hi = pmore
    40005fe0:	14000004 	b	40005ff0 <one_time_init+0x30e8>
    40005fe4:	b940dbe8 	ldr	w8, [sp, #216]
    40005fe8:	3100051f 	cmn	w8, #0x1
    40005fec:	54000080 	b.eq	40005ffc <one_time_init+0x30f4>  // b.none
    40005ff0:	2a0803f4 	mov	w20, w8
    40005ff4:	36f80068 	tbz	w8, #31, 40006000 <one_time_init+0x30f8>
    40005ff8:	1400005e 	b	40006170 <one_time_init+0x3268>
    40005ffc:	52800028 	mov	w8, #0x1                   	// #1
    40006000:	f9404be9 	ldr	x9, [sp, #144]
    40006004:	71000a7f 	cmp	w19, #0x2
    40006008:	d360fd29 	lsr	x9, x9, #32
    4000600c:	540002a0 	b.eq	40006060 <one_time_init+0x3158>  // b.none
    40006010:	7100067f 	cmp	w19, #0x1
    40006014:	128001b4 	mov	w20, #0xfffffff2            	// #-14
    40006018:	54000ac1 	b.ne	40006170 <one_time_init+0x3268>  // b.any
    4000601c:	128001d4 	mov	w20, #0xfffffff1            	// #-15
    40006020:	b5000a89 	cbnz	x9, 40006170 <one_time_init+0x3268>
    40006024:	a9492be9 	ldp	x9, x10, [sp, #144]
    40006028:	cb0903e9 	neg	x9, x9
    4000602c:	eb09015f 	cmp	x10, x9
    40006030:	54000a08 	b.hi	40006170 <one_time_init+0x3268>  // b.pmore
    40006034:	f9404be9 	ldr	x9, [sp, #144]
    40006038:	91401bec 	add	x12, sp, #0x6, lsl #12
    4000603c:	911ec18c 	add	x12, x12, #0x7b0
    40006040:	d3587d2a 	ubfx	x10, x9, #24, #8
    40006044:	d3507d2b 	ubfx	x11, x9, #16, #16
    40006048:	d3487d29 	ubfx	x9, x9, #8, #24
    4000604c:	3905818a 	strb	w10, [x12, #352]
    40006050:	3905858b 	strb	w11, [x12, #353]
    40006054:	5280004a 	mov	w10, #0x2                   	// #2
    40006058:	5280006b 	mov	w11, #0x3                   	// #3
    4000605c:	14000012 	b	400060a4 <one_time_init+0x319c>
    40006060:	f9404bee 	ldr	x14, [sp, #144]
    40006064:	91401bed 	add	x13, sp, #0x6, lsl #12
    40006068:	911ec1ad 	add	x13, x13, #0x7b0
    4000606c:	39058da9 	strb	w9, [x13, #355]
    40006070:	d378fdca 	lsr	x10, x14, #56
    40006074:	390581aa 	strb	w10, [x13, #352]
    40006078:	d370fdca 	lsr	x10, x14, #48
    4000607c:	d368fdcb 	lsr	x11, x14, #40
    40006080:	d358fdc9 	lsr	x9, x14, #24
    40006084:	390591a9 	strb	w9, [x13, #356]
    40006088:	d348fdc9 	lsr	x9, x14, #8
    4000608c:	390585aa 	strb	w10, [x13, #353]
    40006090:	390589ab 	strb	w11, [x13, #354]
    40006094:	d350fdcc 	lsr	x12, x14, #16
    40006098:	528000ca 	mov	w10, #0x6                   	// #6
    4000609c:	528000eb 	mov	w11, #0x7                   	// #7
    400060a0:	390595ac 	strb	w12, [x13, #357]
    400060a4:	d10283ac 	sub	x12, x29, #0xa0
    400060a8:	382a6989 	strb	w9, [x12, x10]
    400060ac:	a9492be9 	ldp	x9, x10, [sp, #144]
    400060b0:	7100091f 	cmp	w8, #0x2
    400060b4:	382b6989 	strb	w9, [x12, x11]
    400060b8:	8b33c989 	add	x9, x12, w19, sxtw #2
    400060bc:	d360fd4a 	lsr	x10, x10, #32
    400060c0:	540000e0 	b.eq	400060dc <one_time_init+0x31d4>  // b.none
    400060c4:	7100051f 	cmp	w8, #0x1
    400060c8:	128001b4 	mov	w20, #0xfffffff2            	// #-14
    400060cc:	54000521 	b.ne	40006170 <one_time_init+0x3268>  // b.any
    400060d0:	b400026a 	cbz	x10, 4000611c <one_time_init+0x3214>
    400060d4:	128001d4 	mov	w20, #0xfffffff1            	// #-15
    400060d8:	14000026 	b	40006170 <one_time_init+0x3268>
    400060dc:	f9404fee 	ldr	x14, [sp, #152]
    400060e0:	d378fdcb 	lsr	x11, x14, #56
    400060e4:	3900012b 	strb	w11, [x9]
    400060e8:	d370fdcb 	lsr	x11, x14, #48
    400060ec:	d368fdcc 	lsr	x12, x14, #40
    400060f0:	39000d2a 	strb	w10, [x9, #3]
    400060f4:	d358fdca 	lsr	x10, x14, #24
    400060f8:	d350fdcd 	lsr	x13, x14, #16
    400060fc:	3900152d 	strb	w13, [x9, #5]
    40006100:	3900052b 	strb	w11, [x9, #1]
    40006104:	3900092c 	strb	w12, [x9, #2]
    40006108:	3900112a 	strb	w10, [x9, #4]
    4000610c:	d348fdca 	lsr	x10, x14, #8
    40006110:	528000cb 	mov	w11, #0x6                   	// #6
    40006114:	528000ec 	mov	w12, #0x7                   	// #7
    40006118:	14000009 	b	4000613c <one_time_init+0x3234>
    4000611c:	f9404fea 	ldr	x10, [sp, #152]
    40006120:	d3587d4b 	ubfx	x11, x10, #24, #8
    40006124:	d3507d4c 	ubfx	x12, x10, #16, #16
    40006128:	d3487d4a 	ubfx	x10, x10, #8, #24
    4000612c:	3900012b 	strb	w11, [x9]
    40006130:	3900052c 	strb	w12, [x9, #1]
    40006134:	5280004b 	mov	w11, #0x2                   	// #2
    40006138:	5280006c 	mov	w12, #0x3                   	// #3
    4000613c:	382b692a 	strb	w10, [x9, x11]
    40006140:	f9404fea 	ldr	x10, [sp, #152]
    40006144:	f9401be0 	ldr	x0, [sp, #48]
    40006148:	0b130108 	add	w8, w8, w19
    4000614c:	531e7504 	lsl	w4, w8, #2
    40006150:	d10283a3 	sub	x3, x29, #0xa0
    40006154:	b00000a2 	adrp	x2, 4001b000 <rodata_begin>
    40006158:	912c8842 	add	x2, x2, #0xb22
    4000615c:	382c692a 	strb	w10, [x9, x12]
    40006160:	f9402be1 	ldr	x1, [sp, #80]
    40006164:	9400283e 	bl	4001025c <fdt_appendprop>
    40006168:	2a0003f4 	mov	w20, w0
    4000616c:	34000120 	cbz	w0, 40006190 <one_time_init+0x3288>
    40006170:	d00000a0 	adrp	x0, 4001c000 <arch_mm_init.pa_bits_table+0xa68>
    40006174:	913c0400 	add	x0, x0, #0xf01
    40006178:	2a1403e1 	mov	w1, w20
    4000617c:	94001ed9 	bl	4000dce0 <dlog>
    40006180:	2a1403e8 	mov	w8, w20
    40006184:	f9002be8 	str	x8, [sp, #80]
    40006188:	f94053f8 	ldr	x24, [sp, #160]
    4000618c:	17fffc06 	b	400051a4 <one_time_init+0x229c>
    40006190:	f9401be0 	ldr	x0, [sp, #48]
    40006194:	b00000a2 	adrp	x2, 4001b000 <rodata_begin>
    40006198:	912f6c42 	add	x2, x2, #0xbdb
    4000619c:	b00000a3 	adrp	x3, 4001b000 <rodata_begin>
    400061a0:	911bd063 	add	x3, x3, #0x6f4
    400061a4:	f9402be1 	ldr	x1, [sp, #80]
    400061a8:	528000e4 	mov	w4, #0x7                   	// #7
    400061ac:	9400282c 	bl	4001025c <fdt_appendprop>
    400061b0:	f9002be0 	str	x0, [sp, #80]
    400061b4:	34000080 	cbz	w0, 400061c4 <one_time_init+0x32bc>
    400061b8:	d00000a0 	adrp	x0, 4001c000 <arch_mm_init.pa_bits_table+0xa68>
    400061bc:	913ae400 	add	x0, x0, #0xeb9
    400061c0:	14000007 	b	400061dc <one_time_init+0x32d4>
    400061c4:	f9401be0 	ldr	x0, [sp, #48]
    400061c8:	94002ad7 	bl	40010d24 <fdt_pack>
    400061cc:	f9002be0 	str	x0, [sp, #80]
    400061d0:	340000c0 	cbz	w0, 400061e8 <one_time_init+0x32e0>
    400061d4:	d00000a0 	adrp	x0, 4001c000 <arch_mm_init.pa_bits_table+0xa68>
    400061d8:	913f3400 	add	x0, x0, #0xfcd
    400061dc:	f9402be1 	ldr	x1, [sp, #80]
    400061e0:	94001ec0 	bl	4000dce0 <dlog>
    400061e4:	17ffffe9 	b	40006188 <one_time_init+0x3280>
    400061e8:	f9002bff 	str	xzr, [sp, #80]
    400061ec:	17ffffe7 	b	40006188 <one_time_init+0x3280>
    400061f0:	f9403fe8 	ldr	x8, [sp, #120]
    400061f4:	889ffd1f 	stlr	wzr, [x8]
    400061f8:	f941e3e8 	ldr	x8, [sp, #960]
    400061fc:	b4000528 	cbz	x8, 400062a0 <one_time_init+0x3398>
    40006200:	91401bea 	add	x10, sp, #0x6, lsl #12
    40006204:	9108e3e9 	add	x9, sp, #0x238
    40006208:	91014129 	add	x9, x9, #0x50
    4000620c:	911f414a 	add	x10, x10, #0x7d0
    40006210:	9100214a 	add	x10, x10, #0x8
    40006214:	910383eb 	add	x11, sp, #0xe0
    40006218:	14000005 	b	4000622c <one_time_init+0x3324>
    4000621c:	f1000508 	subs	x8, x8, #0x1
    40006220:	91004129 	add	x9, x9, #0x10
    40006224:	9100414a 	add	x10, x10, #0x10
    40006228:	540003c0 	b.eq	400062a0 <one_time_init+0x3398>  // b.none
    4000622c:	f85f814c 	ldur	x12, [x10, #-8]
    40006230:	f85f812d 	ldur	x13, [x9, #-8]
    40006234:	eb0d019f 	cmp	x12, x13
    40006238:	54000169 	b.ls	40006264 <one_time_init+0x335c>  // b.plast
    4000623c:	f94113ee 	ldr	x14, [sp, #544]
    40006240:	f10051df 	cmp	x14, #0x14
    40006244:	54005bc2 	b.cs	40006dbc <one_time_init+0x3eb4>  // b.hs, b.nlast
    40006248:	d37cedce 	lsl	x14, x14, #4
    4000624c:	f82e696d 	str	x13, [x11, x14]
    40006250:	f94113ed 	ldr	x13, [sp, #544]
    40006254:	8b0d116e 	add	x14, x11, x13, lsl #4
    40006258:	f90005cc 	str	x12, [x14, #8]
    4000625c:	910005ac 	add	x12, x13, #0x1
    40006260:	f90113ec 	str	x12, [sp, #544]
    40006264:	f940014d 	ldr	x13, [x10]
    40006268:	f940012c 	ldr	x12, [x9]
    4000626c:	eb0c01bf 	cmp	x13, x12
    40006270:	54fffd62 	b.cs	4000621c <one_time_init+0x3314>  // b.hs, b.nlast
    40006274:	f94113ee 	ldr	x14, [sp, #544]
    40006278:	f10051df 	cmp	x14, #0x14
    4000627c:	54005a02 	b.cs	40006dbc <one_time_init+0x3eb4>  // b.hs, b.nlast
    40006280:	d37cedce 	lsl	x14, x14, #4
    40006284:	f82e696d 	str	x13, [x11, x14]
    40006288:	f94113ed 	ldr	x13, [sp, #544]
    4000628c:	8b0d116e 	add	x14, x11, x13, lsl #4
    40006290:	f90005cc 	str	x12, [x14, #8]
    40006294:	910005ac 	add	x12, x13, #0x1
    40006298:	f90113ec 	str	x12, [sp, #544]
    4000629c:	17ffffe0 	b	4000621c <one_time_init+0x3314>
    400062a0:	396a63e8 	ldrb	w8, [sp, #2712]
    400062a4:	34000188 	cbz	w8, 400062d4 <one_time_init+0x33cc>
    400062a8:	911223e8 	add	x8, sp, #0x488
    400062ac:	91184113 	add	x19, x8, #0x610
    400062b0:	91401be2 	add	x2, sp, #0x6, lsl #12
    400062b4:	910323e0 	add	x0, sp, #0xc8
    400062b8:	911f4042 	add	x2, x2, #0x7d0
    400062bc:	aa1303e1 	mov	x1, x19
    400062c0:	97fff03b 	bl	400023ac <cpio_get_file>
    400062c4:	36006720 	tbz	w0, #0, 40006fa8 <one_time_init+0x40a0>
    400062c8:	f973efe8 	ldr	x8, [sp, #26584]
    400062cc:	f973ebe9 	ldr	x9, [sp, #26576]
    400062d0:	14000005 	b	400062e4 <one_time_init+0x33dc>
    400062d4:	aa1f03e8 	mov	x8, xzr
    400062d8:	aa1f03e9 	mov	x9, xzr
    400062dc:	f933efff 	str	xzr, [sp, #26584]
    400062e0:	f933ebff 	str	xzr, [sp, #26576]
    400062e4:	f9011be8 	str	x8, [sp, #560]
    400062e8:	b00000c8 	adrp	x8, 4001f000 <cpus>
    400062ec:	d2c01015 	mov	x21, #0x8000000000          	// #549755813888
    400062f0:	f90117e9 	str	x9, [sp, #552]
    400062f4:	f9408508 	ldr	x8, [x8, #264]
    400062f8:	f940011c 	ldr	x28, [x8]
    400062fc:	528204e8 	mov	w8, #0x1027                	// #4135
    40006300:	8b080388 	add	x8, x28, x8
    40006304:	9274cd09 	and	x9, x8, #0xfffffffffffff000
    40006308:	d367fd08 	lsr	x8, x8, #39
    4000630c:	f100011f 	cmp	x8, #0x0
    40006310:	92748f94 	and	x20, x28, #0xfffffffff000
    40006314:	9a950136 	csel	x22, x9, x21, eq  // eq = none
    40006318:	eb1402da 	subs	x26, x22, x20
    4000631c:	d367bf88 	ubfx	x8, x28, #39, #9
    40006320:	f90053e8 	str	x8, [sp, #160]
    40006324:	54000629 	b.ls	400063e8 <one_time_init+0x34e0>  // b.plast
    40006328:	f0000408 	adrp	x8, 40089000 <dlog_lock_enabled>
    4000632c:	f9401108 	ldr	x8, [x8, #32]
    40006330:	f94053e9 	ldr	x9, [sp, #160]
    40006334:	8b093117 	add	x23, x8, x9, lsl #12
    40006338:	d00000d3 	adrp	x19, 40020000 <arch_mm_config>
    4000633c:	9100e273 	add	x19, x19, #0x38
    40006340:	aa1403f8 	mov	x24, x20
    40006344:	91000763 	add	x3, x27, #0x1
    40006348:	aa1803e0 	mov	x0, x24
    4000634c:	aa1603e1 	mov	x1, x22
    40006350:	aa1803e2 	mov	x2, x24
    40006354:	aa1703e4 	mov	x4, x23
    40006358:	52800045 	mov	w5, #0x2                   	// #2
    4000635c:	52800086 	mov	w6, #0x4                   	// #4
    40006360:	aa1303e7 	mov	x7, x19
    40006364:	94002d31 	bl	40011828 <mm_map_level>
    40006368:	36005360 	tbz	w0, #0, 40006dd4 <one_time_init+0x3ecc>
    4000636c:	8b150308 	add	x8, x24, x21
    40006370:	92596118 	and	x24, x8, #0xffffff8000000000
    40006374:	914006f7 	add	x23, x23, #0x1, lsl #12
    40006378:	eb16031f 	cmp	x24, x22
    4000637c:	54fffe43 	b.cc	40006344 <one_time_init+0x343c>  // b.lo, b.ul, b.last
    40006380:	eb1402df 	cmp	x22, x20
    40006384:	f0000408 	adrp	x8, 40089000 <dlog_lock_enabled>
    40006388:	54000309 	b.ls	400063e8 <one_time_init+0x34e0>  // b.plast
    4000638c:	f9401108 	ldr	x8, [x8, #32]
    40006390:	d00000d7 	adrp	x23, 40020000 <arch_mm_config>
    40006394:	9100e2f7 	add	x23, x23, #0x38
    40006398:	f94053e9 	ldr	x9, [sp, #160]
    4000639c:	8b093118 	add	x24, x8, x9, lsl #12
    400063a0:	528000b3 	mov	w19, #0x5                   	// #5
    400063a4:	d2c01015 	mov	x21, #0x8000000000          	// #549755813888
    400063a8:	aa1403f9 	mov	x25, x20
    400063ac:	91000763 	add	x3, x27, #0x1
    400063b0:	aa1903e0 	mov	x0, x25
    400063b4:	aa1603e1 	mov	x1, x22
    400063b8:	aa1903e2 	mov	x2, x25
    400063bc:	aa1803e4 	mov	x4, x24
    400063c0:	52800045 	mov	w5, #0x2                   	// #2
    400063c4:	2a1303e6 	mov	w6, w19
    400063c8:	aa1703e7 	mov	x7, x23
    400063cc:	94002d17 	bl	40011828 <mm_map_level>
    400063d0:	36004a80 	tbz	w0, #0, 40006d20 <one_time_init+0x3e18>
    400063d4:	8b150328 	add	x8, x25, x21
    400063d8:	92596119 	and	x25, x8, #0xffffff8000000000
    400063dc:	91400718 	add	x24, x24, #0x1, lsl #12
    400063e0:	eb16033f 	cmp	x25, x22
    400063e4:	54fffe43 	b.cc	400063ac <one_time_init+0x34a4>  // b.lo, b.ul, b.last
    400063e8:	f9004ffa 	str	x26, [sp, #152]
    400063ec:	f148035f 	cmp	x26, #0x200, lsl #12
    400063f0:	d34cfe99 	lsr	x25, x20, #12
    400063f4:	d34cfeda 	lsr	x26, x22, #12
    400063f8:	d5033a9f 	dsb	ishst
    400063fc:	54000069 	b.ls	40006408 <one_time_init+0x3500>  // b.plast
    40006400:	d50c831f 	tlbi	alle2is
    40006404:	14000008 	b	40006424 <one_time_init+0x351c>
    40006408:	eb56333f 	cmp	x25, x22, lsr #12
    4000640c:	540000c2 	b.cs	40006424 <one_time_init+0x351c>  // b.hs, b.nlast
    40006410:	aa1903e8 	mov	x8, x25
    40006414:	d50c8328 	tlbi	vae2is, x8
    40006418:	91000508 	add	x8, x8, #0x1
    4000641c:	eb08035f 	cmp	x26, x8
    40006420:	54ffffa1 	b.ne	40006414 <one_time_init+0x350c>  // b.any
    40006424:	d5033b9f 	dsb	ish
    40006428:	d5033fdf 	isb
    4000642c:	b4004d5c 	cbz	x28, 40006dd4 <one_time_init+0x3ecc>
    40006430:	aa1c03e0 	mov	x0, x28
    40006434:	940021b4 	bl	4000eb04 <fdt_check_header>
    40006438:	34000880 	cbz	w0, 40006548 <one_time_init+0x3640>
    4000643c:	f00000a0 	adrp	x0, 4001d000 <arch_mm_init.pa_bits_table+0x1a68>
    40006440:	910b9000 	add	x0, x0, #0x2e4
    40006444:	94001e27 	bl	4000dce0 <dlog>
    40006448:	eb1402df 	cmp	x22, x20
    4000644c:	54000609 	b.ls	4000650c <one_time_init+0x3604>  // b.plast
    40006450:	f0000408 	adrp	x8, 40089000 <dlog_lock_enabled>
    40006454:	f9401108 	ldr	x8, [x8, #32]
    40006458:	f94053e9 	ldr	x9, [sp, #160]
    4000645c:	8b093115 	add	x21, x8, x9, lsl #12
    40006460:	d00000d3 	adrp	x19, 40020000 <arch_mm_config>
    40006464:	9100e273 	add	x19, x19, #0x38
    40006468:	d2c01018 	mov	x24, #0x8000000000          	// #549755813888
    4000646c:	aa1403f7 	mov	x23, x20
    40006470:	aa1703e0 	mov	x0, x23
    40006474:	aa1603e1 	mov	x1, x22
    40006478:	aa1703e2 	mov	x2, x23
    4000647c:	aa1b03e3 	mov	x3, x27
    40006480:	aa1503e4 	mov	x4, x21
    40006484:	52800045 	mov	w5, #0x2                   	// #2
    40006488:	528000c6 	mov	w6, #0x6                   	// #6
    4000648c:	aa1303e7 	mov	x7, x19
    40006490:	94002ce6 	bl	40011828 <mm_map_level>
    40006494:	36004d60 	tbz	w0, #0, 40006e40 <one_time_init+0x3f38>
    40006498:	8b1802e8 	add	x8, x23, x24
    4000649c:	92596117 	and	x23, x8, #0xffffff8000000000
    400064a0:	914006b5 	add	x21, x21, #0x1, lsl #12
    400064a4:	eb1602ff 	cmp	x23, x22
    400064a8:	54fffe43 	b.cc	40006470 <one_time_init+0x3568>  // b.lo, b.ul, b.last
    400064ac:	eb1402df 	cmp	x22, x20
    400064b0:	540002e9 	b.ls	4000650c <one_time_init+0x3604>  // b.plast
    400064b4:	f0000408 	adrp	x8, 40089000 <dlog_lock_enabled>
    400064b8:	f9401108 	ldr	x8, [x8, #32]
    400064bc:	f94053e9 	ldr	x9, [sp, #160]
    400064c0:	8b093115 	add	x21, x8, x9, lsl #12
    400064c4:	d00000d3 	adrp	x19, 40020000 <arch_mm_config>
    400064c8:	9100e273 	add	x19, x19, #0x38
    400064cc:	d2c01017 	mov	x23, #0x8000000000          	// #549755813888
    400064d0:	aa1403e0 	mov	x0, x20
    400064d4:	aa1603e1 	mov	x1, x22
    400064d8:	aa1403e2 	mov	x2, x20
    400064dc:	aa1b03e3 	mov	x3, x27
    400064e0:	aa1503e4 	mov	x4, x21
    400064e4:	52800045 	mov	w5, #0x2                   	// #2
    400064e8:	528000e6 	mov	w6, #0x7                   	// #7
    400064ec:	aa1303e7 	mov	x7, x19
    400064f0:	94002cce 	bl	40011828 <mm_map_level>
    400064f4:	36004160 	tbz	w0, #0, 40006d20 <one_time_init+0x3e18>
    400064f8:	8b170288 	add	x8, x20, x23
    400064fc:	92596114 	and	x20, x8, #0xffffff8000000000
    40006500:	914006b5 	add	x21, x21, #0x1, lsl #12
    40006504:	eb16029f 	cmp	x20, x22
    40006508:	54fffe43 	b.cc	400064d0 <one_time_init+0x35c8>  // b.lo, b.ul, b.last
    4000650c:	d5033a9f 	dsb	ishst
    40006510:	f9404fe8 	ldr	x8, [sp, #152]
    40006514:	f148011f 	cmp	x8, #0x200, lsl #12
    40006518:	54005528 	b.hi	40006fbc <one_time_init+0x40b4>  // b.pmore
    4000651c:	eb56333f 	cmp	x25, x22, lsr #12
    40006520:	540000a2 	b.cs	40006534 <one_time_init+0x362c>  // b.hs, b.nlast
    40006524:	d50c8339 	tlbi	vae2is, x25
    40006528:	91000739 	add	x25, x25, #0x1
    4000652c:	eb19035f 	cmp	x26, x25
    40006530:	54ffffa1 	b.ne	40006524 <one_time_init+0x361c>  // b.any
    40006534:	d00000a0 	adrp	x0, 4001c000 <arch_mm_init.pa_bits_table+0xa68>
    40006538:	9105a400 	add	x0, x0, #0x169
    4000653c:	d5033b9f 	dsb	ish
    40006540:	d5033fdf 	isb
    40006544:	94002fa5 	bl	400123d8 <panic>
    40006548:	39401388 	ldrb	w8, [x28, #4]
    4000654c:	53081d08 	lsl	w8, w8, #24
    40006550:	39401789 	ldrb	w9, [x28, #5]
    40006554:	33101d28 	bfi	w8, w9, #16, #8
    40006558:	39401b89 	ldrb	w9, [x28, #6]
    4000655c:	33181d28 	bfi	w8, w9, #8, #8
    40006560:	39401f89 	ldrb	w9, [x28, #7]
    40006564:	2a090108 	orr	w8, w8, w9
    40006568:	11400508 	add	w8, w8, #0x1, lsl #12
    4000656c:	f9004be8 	str	x8, [sp, #144]
    40006570:	8b080388 	add	x8, x28, x8
    40006574:	913ffd08 	add	x8, x8, #0xfff
    40006578:	9274cd09 	and	x9, x8, #0xfffffffffffff000
    4000657c:	d367fd08 	lsr	x8, x8, #39
    40006580:	f100011f 	cmp	x8, #0x0
    40006584:	d2c01015 	mov	x21, #0x8000000000          	// #549755813888
    40006588:	9a950138 	csel	x24, x9, x21, eq  // eq = none
    4000658c:	eb140308 	subs	x8, x24, x20
    40006590:	f90047e8 	str	x8, [sp, #136]
    40006594:	540006c9 	b.ls	4000666c <one_time_init+0x3764>  // b.plast
    40006598:	d280d089 	mov	x9, #0x684                 	// #1668
    4000659c:	f0000408 	adrp	x8, 40089000 <dlog_lock_enabled>
    400065a0:	f9401108 	ldr	x8, [x8, #32]
    400065a4:	f2e00809 	movk	x9, #0x40, lsl #48
    400065a8:	d101fd37 	sub	x23, x9, #0x7f
    400065ac:	f94053e9 	ldr	x9, [sp, #160]
    400065b0:	8b093113 	add	x19, x8, x9, lsl #12
    400065b4:	f90043fc 	str	x28, [sp, #128]
    400065b8:	d00000db 	adrp	x27, 40020000 <arch_mm_config>
    400065bc:	9100e37b 	add	x27, x27, #0x38
    400065c0:	aa1403fc 	mov	x28, x20
    400065c4:	aa1c03e0 	mov	x0, x28
    400065c8:	aa1803e1 	mov	x1, x24
    400065cc:	aa1c03e2 	mov	x2, x28
    400065d0:	aa1703e3 	mov	x3, x23
    400065d4:	aa1303e4 	mov	x4, x19
    400065d8:	52800045 	mov	w5, #0x2                   	// #2
    400065dc:	52800086 	mov	w6, #0x4                   	// #4
    400065e0:	aa1b03e7 	mov	x7, x27
    400065e4:	94002c91 	bl	40011828 <mm_map_level>
    400065e8:	36000840 	tbz	w0, #0, 400066f0 <one_time_init+0x37e8>
    400065ec:	8b150388 	add	x8, x28, x21
    400065f0:	9259611c 	and	x28, x8, #0xffffff8000000000
    400065f4:	91400673 	add	x19, x19, #0x1, lsl #12
    400065f8:	eb18039f 	cmp	x28, x24
    400065fc:	54fffe43 	b.cc	400065c4 <one_time_init+0x36bc>  // b.lo, b.ul, b.last
    40006600:	f94043fc 	ldr	x28, [sp, #128]
    40006604:	eb14031f 	cmp	x24, x20
    40006608:	54000329 	b.ls	4000666c <one_time_init+0x3764>  // b.plast
    4000660c:	f0000408 	adrp	x8, 40089000 <dlog_lock_enabled>
    40006610:	f9401108 	ldr	x8, [x8, #32]
    40006614:	f94053e9 	ldr	x9, [sp, #160]
    40006618:	8b09311a 	add	x26, x8, x9, lsl #12
    4000661c:	d00000d3 	adrp	x19, 40020000 <arch_mm_config>
    40006620:	9100e273 	add	x19, x19, #0x38
    40006624:	528000b6 	mov	w22, #0x5                   	// #5
    40006628:	d2c01015 	mov	x21, #0x8000000000          	// #549755813888
    4000662c:	aa1403fb 	mov	x27, x20
    40006630:	aa1b03e0 	mov	x0, x27
    40006634:	aa1803e1 	mov	x1, x24
    40006638:	aa1b03e2 	mov	x2, x27
    4000663c:	aa1703e3 	mov	x3, x23
    40006640:	aa1a03e4 	mov	x4, x26
    40006644:	52800045 	mov	w5, #0x2                   	// #2
    40006648:	2a1603e6 	mov	w6, w22
    4000664c:	aa1303e7 	mov	x7, x19
    40006650:	94002c76 	bl	40011828 <mm_map_level>
    40006654:	36003660 	tbz	w0, #0, 40006d20 <one_time_init+0x3e18>
    40006658:	8b150368 	add	x8, x27, x21
    4000665c:	9259611b 	and	x27, x8, #0xffffff8000000000
    40006660:	9140075a 	add	x26, x26, #0x1, lsl #12
    40006664:	eb18037f 	cmp	x27, x24
    40006668:	54fffe43 	b.cc	40006630 <one_time_init+0x3728>  // b.lo, b.ul, b.last
    4000666c:	d5033a9f 	dsb	ishst
    40006670:	f94047e8 	ldr	x8, [sp, #136]
    40006674:	f148011f 	cmp	x8, #0x200, lsl #12
    40006678:	54000089 	b.ls	40006688 <one_time_init+0x3780>  // b.plast
    4000667c:	d50c831f 	tlbi	alle2is
    40006680:	f9404bf3 	ldr	x19, [sp, #144]
    40006684:	1400000a 	b	400066ac <one_time_init+0x37a4>
    40006688:	f9404bf3 	ldr	x19, [sp, #144]
    4000668c:	eb58333f 	cmp	x25, x24, lsr #12
    40006690:	540000e2 	b.cs	400066ac <one_time_init+0x37a4>  // b.hs, b.nlast
    40006694:	d34cff08 	lsr	x8, x24, #12
    40006698:	aa1903e9 	mov	x9, x25
    4000669c:	d50c8329 	tlbi	vae2is, x9
    400066a0:	91000529 	add	x9, x9, #0x1
    400066a4:	eb09011f 	cmp	x8, x9
    400066a8:	54ffffa1 	b.ne	4000669c <one_time_init+0x3794>  // b.any
    400066ac:	aa1c03e0 	mov	x0, x28
    400066b0:	aa1303e1 	mov	x1, x19
    400066b4:	d5033b9f 	dsb	ish
    400066b8:	d5033fdf 	isb
    400066bc:	9400259d 	bl	4000fd30 <fdt_check_full>
    400066c0:	34000080 	cbz	w0, 400066d0 <one_time_init+0x37c8>
    400066c4:	f00000a0 	adrp	x0, 4001d000 <arch_mm_init.pa_bits_table+0x1a68>
    400066c8:	910c2800 	add	x0, x0, #0x30a
    400066cc:	14000049 	b	400067f0 <one_time_init+0x38e8>
    400066d0:	aa1c03e0 	mov	x0, x28
    400066d4:	aa1c03e1 	mov	x1, x28
    400066d8:	2a1303e2 	mov	w2, w19
    400066dc:	94002899 	bl	40010940 <fdt_open_into>
    400066e0:	34000120 	cbz	w0, 40006704 <one_time_init+0x37fc>
    400066e4:	f00000a0 	adrp	x0, 4001d000 <arch_mm_init.pa_bits_table+0x1a68>
    400066e8:	910b0c00 	add	x0, x0, #0x2c3
    400066ec:	14000041 	b	400067f0 <one_time_init+0x38e8>
    400066f0:	d280d09b 	mov	x27, #0x684                 	// #1668
    400066f4:	f2e0081b 	movk	x27, #0x40, lsl #48
    400066f8:	f00000a0 	adrp	x0, 4001d000 <arch_mm_init.pa_bits_table+0x1a68>
    400066fc:	91180800 	add	x0, x0, #0x602
    40006700:	17ffff51 	b	40006444 <one_time_init+0x353c>
    40006704:	b00000a1 	adrp	x1, 4001b000 <rodata_begin>
    40006708:	9128f421 	add	x1, x1, #0xa3d
    4000670c:	aa1c03e0 	mov	x0, x28
    40006710:	528000e2 	mov	w2, #0x7                   	// #7
    40006714:	940024e8 	bl	4000fab4 <fdt_path_offset_namelen>
    40006718:	37f80460 	tbnz	w0, #31, 400067a4 <one_time_init+0x389c>
    4000671c:	f94117f3 	ldr	x19, [sp, #552]
    40006720:	2a0003f6 	mov	w22, w0
    40006724:	52800248 	mov	w8, #0x12                  	// #18
    40006728:	b4000068 	cbz	x8, 40006734 <one_time_init+0x382c>
    4000672c:	d1000508 	sub	x8, x8, #0x1
    40006730:	b5ffffe8 	cbnz	x8, 4000672c <one_time_init+0x3824>
    40006734:	91401be4 	add	x4, sp, #0x6, lsl #12
    40006738:	b00000a2 	adrp	x2, 4001b000 <rodata_begin>
    4000673c:	911e7c42 	add	x2, x2, #0x79f
    40006740:	52800243 	mov	w3, #0x12                  	// #18
    40006744:	911ec084 	add	x4, x4, #0x7b0
    40006748:	d10283a5 	sub	x5, x29, #0xa0
    4000674c:	aa1c03e0 	mov	x0, x28
    40006750:	2a1603e1 	mov	w1, w22
    40006754:	940022ef 	bl	4000f310 <fdt_get_property_namelen_>
    40006758:	b4000480 	cbz	x0, 400067e8 <one_time_init+0x38e0>
    4000675c:	91401be8 	add	x8, sp, #0x6, lsl #12
    40006760:	911ec108 	add	x8, x8, #0x7b0
    40006764:	b9400108 	ldr	w8, [x8]
    40006768:	7100111f 	cmp	w8, #0x4
    4000676c:	54000220 	b.eq	400067b0 <one_time_init+0x38a8>  // b.none
    40006770:	7100211f 	cmp	w8, #0x8
    40006774:	540003a1 	b.ne	400067e8 <one_time_init+0x38e0>  // b.any
    40006778:	dac00e68 	rev	x8, x19
    4000677c:	b00000a2 	adrp	x2, 4001b000 <rodata_begin>
    40006780:	911e7c42 	add	x2, x2, #0x79f
    40006784:	d10283a3 	sub	x3, x29, #0xa0
    40006788:	f81603a8 	stur	x8, [x29, #-160]
    4000678c:	aa1c03e0 	mov	x0, x28
    40006790:	2a1603e1 	mov	w1, w22
    40006794:	52800104 	mov	w4, #0x8                   	// #8
    40006798:	940029b4 	bl	40010e68 <fdt_setprop_inplace>
    4000679c:	35000260 	cbnz	w0, 400067e8 <one_time_init+0x38e0>
    400067a0:	140000e4 	b	40006b30 <one_time_init+0x3c28>
    400067a4:	f00000a0 	adrp	x0, 4001d000 <arch_mm_init.pa_bits_table+0x1a68>
    400067a8:	91175c00 	add	x0, x0, #0x5d7
    400067ac:	14000011 	b	400067f0 <one_time_init+0x38e8>
    400067b0:	d360fe68 	lsr	x8, x19, #32
    400067b4:	b50001a8 	cbnz	x8, 400067e8 <one_time_init+0x38e0>
    400067b8:	91401be9 	add	x9, sp, #0x6, lsl #12
    400067bc:	5ac00a68 	rev	w8, w19
    400067c0:	b00000a2 	adrp	x2, 4001b000 <rodata_begin>
    400067c4:	911e7c42 	add	x2, x2, #0x79f
    400067c8:	911ec129 	add	x9, x9, #0x7b0
    400067cc:	b9016128 	str	w8, [x9, #352]
    400067d0:	d10283a3 	sub	x3, x29, #0xa0
    400067d4:	aa1c03e0 	mov	x0, x28
    400067d8:	2a1603e1 	mov	w1, w22
    400067dc:	52800084 	mov	w4, #0x4                   	// #4
    400067e0:	940029a2 	bl	40010e68 <fdt_setprop_inplace>
    400067e4:	34001a60 	cbz	w0, 40006b30 <one_time_init+0x3c28>
    400067e8:	d00000a0 	adrp	x0, 4001c000 <arch_mm_init.pa_bits_table+0xa68>
    400067ec:	912e8000 	add	x0, x0, #0xba0
    400067f0:	94001d3c 	bl	4000dce0 <dlog>
    400067f4:	2a1f03f5 	mov	w21, wzr
    400067f8:	39401388 	ldrb	w8, [x28, #4]
    400067fc:	53081d08 	lsl	w8, w8, #24
    40006800:	39401789 	ldrb	w9, [x28, #5]
    40006804:	33101d28 	bfi	w8, w9, #16, #8
    40006808:	39401b89 	ldrb	w9, [x28, #6]
    4000680c:	33181d28 	bfi	w8, w9, #8, #8
    40006810:	39401f89 	ldrb	w9, [x28, #7]
    40006814:	2a090108 	orr	w8, w8, w9
    40006818:	11400508 	add	w8, w8, #0x1, lsl #12
    4000681c:	8b1c0108 	add	x8, x8, x28
    40006820:	913ffd08 	add	x8, x8, #0xfff
    40006824:	9274cd09 	and	x9, x8, #0xfffffffffffff000
    40006828:	d367fd08 	lsr	x8, x8, #39
    4000682c:	f100011f 	cmp	x8, #0x0
    40006830:	d2c0101b 	mov	x27, #0x8000000000          	// #549755813888
    40006834:	9a9b0136 	csel	x22, x9, x27, eq  // eq = none
    40006838:	eb1402da 	subs	x26, x22, x20
    4000683c:	54000629 	b.ls	40006900 <one_time_init+0x39f8>  // b.plast
    40006840:	f0000408 	adrp	x8, 40089000 <dlog_lock_enabled>
    40006844:	f9401108 	ldr	x8, [x8, #32]
    40006848:	f94053e9 	ldr	x9, [sp, #160]
    4000684c:	8b093113 	add	x19, x8, x9, lsl #12
